(lp1
(S'PCDH19'
p2
S'ZBTB33'
p3
tp4
a(S'BMP15'
p5
S'OFD1'
p6
tp7
a(S'ADAM29'
p8
S'ZNF571'
p9
tp10
a(S'OR2T35'
p11
S'PAGE5'
p12
tp13
a(S'TRO'
p14
S'TTC3'
p15
tp16
a(S'AR'
p17
S'GABRB2'
p18
tp19
a(S'ASPN'
p20
S'GNG5'
p21
tp22
a(S'GLA'
p23
S'IGHJ6'
p24
tp25
a(S'APBB1IP'
p26
S'CD99L2'
p27
tp28
a(S'PILRB'
p29
S'WDFY3-AS2'
p30
tp31
a(S'IGHJ6'
p32
S'TMEM247'
p33
tp34
a(S'DCAF5'
p35
S'MORF4L2'
p36
tp37
a(g27
S'ITIH6'
p38
tp39
a(S'AGAP3'
p40
S'OLAH'
p41
tp42
a(S'AL390778.1'
p43
S'LPAR6'
p44
tp45
a(S'IGHJ6'
p46
S'PPP1R3F'
p47
tp48
a(g26
S'NR0B1'
p49
tp50
a(S'ARMCX4'
p51
S'HLCS'
p52
tp53
a(S'KDM6A'
p54
S'LRRC48'
p55
tp56
a(S'CACNG5'
p57
S'TPPP'
p58
tp59
a(S'APBB1IP'
p60
S'FAM9B'
p61
tp62
a(S'FKSG68'
p63
S'MRI1'
p64
tp65
a(S'KRTAP5-5'
p66
S'RP11-156E8.1'
p67
tp68
a(S'MADCAM1'
p69
S'NHSL2'
p70
tp71
a(S'PLXNA3'
p72
S'TPPP'
p73
tp74
a(S'ELK1'
p75
S'RP11-97O12.7'
p76
tp77
a(S'AP003062.1'
p78
g27
tp79
a(S'ARHGEF6'
p80
g5
tp81
a(S'DUX4L4'
p82
S'RP11-368I7.4'
p83
tp84
a(S'ASPN'
p85
S'TBC1D1'
p86
tp87
a(S'CTAGE8'
p88
S'PDILT'
p89
tp90
a(S'AGAP3'
p91
S'STARD8'
p92
tp93
a(S'FAM46A'
p94
S'TAF4'
p95
tp96
a(g6
S'STRIP2'
p97
tp98
a(g12
S'TAS2R43'
p99
tp100
a(g5
S'SLC25A43'
p101
tp102
a(S'CHDC2'
p103
g38
tp104
a(S'FAM47B'
p105
S'H2BFWT'
p106
tp107
a(S'APBB1IP'
p108
S'PRICKLE3'
p109
tp110
a(S'AGAP3'
p111
S'LPAR6'
p112
tp113
a(S'MAGT1'
p114
S'RP11-97O12.7'
p115
tp116
a(S'AP003041.2'
p117
S'FADS6'
p118
tp119
a(S'HDAC6'
p120
S'TREX2'
p121
tp122
a(S'INTS4L2'
p123
S'ZNF681'
p124
tp125
a(S'BCOR'
p126
S'GRPR'
p127
tp128
a(S'KRT10'
p129
S'TAF7L'
p130
tp131
a(g103
S'RNF19B'
p132
tp133
a(S'COL4A6'
p134
S'ZNF571'
p135
tp136
a(g52
S'LCA10'
p137
tp138
a(g82
S'RP11-353N4.8'
p139
tp140
a(S'AHNAK2'
p141
S'BHLHB9'
p142
tp143
a(g80
S'RNF19B'
p144
tp145
a(S'ADAMTSL1'
p146
S'RIMBP3'
p147
tp148
a(S'AC138393.1'
p149
S'ASPN'
p150
tp151
a(S'MRVI1'
p152
S'TMEM237'
p153
tp154
a(S'ESPNP'
p155
S'MT-CYB'
p156
tp157
a(S'RBMXL3'
p158
g95
tp159
a(S'FADS6'
p160
S'RGAG1'
p161
tp162
a(S'ENPP7'
p163
g94
tp164
a(S'IGLV3-22'
p165
S'RBP3'
p166
tp167
a(S'AC138393.1'
p168
S'SH3RF3'
p169
tp170
a(S'NAP1L3'
p171
S'SSX5'
p172
tp173
a(S'ACAN'
p174
S'LPAR6'
p175
tp176
a(g112
S'TPPP'
p177
tp178
a(g163
g76
tp179
a(S'GPAT2'
p180
S'RNF19B'
p181
tp182
a(S'AC018630.1'
p183
S'LPAR6'
p184
tp185
a(S'ATXN3L'
p186
S'KRTAP5-5'
p187
tp188
a(S'PAGE1'
p189
S'SOWAHD'
p190
tp191
a(S'CXorf58'
p192
S'SLC9A6'
p193
tp194
a(S'FKSG68'
p195
S'NXF5'
p196
tp197
a(S'FKSG68'
p198
S'MADCAM1'
p199
tp200
a(S'METTL16'
p201
g95
tp202
a(S'MT-CO1'
p203
S'SRA1'
p204
tp205
a(g106
g73
tp206
a(g21
g24
tp207
a(S'MMS22L'
p208
S'ZNF571'
p209
tp210
a(g171
g196
tp211
a(S'IGHJ6'
p212
S'TBP'
p213
tp214
a(S'ARR3'
p215
S'RIMBP3'
p216
tp217
a(S'FKSG68'
p218
S'FOXP3'
p219
tp220
a(g109
g177
tp221
a(S'AMER1'
p222
S'MAP7D3'
p223
tp224
a(S'GRB10'
p225
S'ZNF630'
p226
tp227
a(S'ENOX2'
p228
S'LPAR6'
p229
tp230
a(S'RP1L1'
p231
S'hsa-mir-6080'
p232
tp233
a(S'AL390778.1'
p234
S'MYO15A'
p235
tp236
a(S'TECTB'
p237
S'hsa-mir-6080'
p238
tp239
a(S'MAGEA8'
p240
g237
tp241
a(S'A1CF'
p242
S'ZNF571'
p243
tp244
a(S'C19orf71'
p245
S'PRAMEF4'
p246
tp247
a(S'COL4A6'
p248
S'HDAC6'
p249
tp250
a(g219
g99
tp251
a(S'AHCTF1'
p252
S'AP003062.1'
p253
tp254
a(S'ARHGAP6'
p255
S'RPGR'
p256
tp257
a(S'ACOT1'
p258
S'RP11-97O12.7'
p259
tp260
a(S'CDC42EP1'
p261
S'USP17L10'
p262
tp263
a(g168
S'IGHJ6'
p264
tp265
a(g163
g226
tp266
a(g17
S'RP11-97O12.7'
p267
tp268
a(g180
S'hsa-mir-6080'
p269
tp270
a(S'APBB1IP'
p271
S'HDAC8'
p272
tp273
a(S'ADCY2'
p274
S'C20orf26'
p275
tp276
a(S'FRMPD2'
p277
S'TLR7'
p278
tp279
a(S'ALG13'
p280
S'KRR1'
p281
tp282
a(g201
S'hsa-mir-6080'
p283
tp284
a(S'GNG5'
p285
S'LTBP1'
p286
tp287
a(S'GNG5'
p288
S'TAS2R43'
p289
tp290
a(g21
S'RGAG1'
p291
tp292
a(g120
S'TSPYL2'
p293
tp294
a(S'AGAP3'
p295
S'SLITRK4'
p296
tp297
a(S'ACAN'
p298
S'VWA3B'
p299
tp300
a(S'LNP1'
p301
S'RP11-97O12.7'
p302
tp303
a(S'HLCS'
p304
S'SLC26A8'
p305
tp306
a(S'GPR173'
p307
S'hsa-mir-6080'
p308
tp309
a(g91
S'DMP1'
p310
tp311
a(S'SLC9B1P1'
p312
S'VPS13B'
p313
tp314
a(S'ARMCX4'
p315
S'COL4A6'
p316
tp317
a(S'NBPF12'
p318
S'NOP9'
p319
tp320
a(g225
g152
tp321
a(S'KRBA1'
p322
S'MAGEC3'
p323
tp324
a(S'LPAR6'
p325
g299
tp326
a(g141
S'CLASP1'
p327
tp328
a(S'EPHA4'
p329
g238
tp330
a(S'IGHJ6'
p331
S'ZXDA'
p332
tp333
a(g6
S'SPATA31A6'
p334
tp335
a(S'AC026740.1'
p336
S'RNF19B'
p337
tp338
a(S'APBB1IP'
p339
g199
tp340
a(S'ARHGAP10'
p341
S'RNF19B'
p342
tp343
a(S'GRIA3'
p344
S'NHSL2'
p345
tp346
a(g2
g193
tp347
a(S'HEPH'
p348
S'INSC'
p349
tp350
a(S'AC018630.1'
p351
g2
tp352
a(S'AC026740.1'
p353
S'FKSG68'
p354
tp355
a(S'TAS2R43'
p356
S'WWC2'
p357
tp358
a(g8
g52
tp359
a(S'AC009060.1'
p360
S'TAS2R43'
p361
tp362
a(S'WDR44'
p363
g135
tp364
a(S'GRIPAP1'
p365
S'RP11-156E8.1'
p366
tp367
a(S'AP003062.1'
p368
g199
tp369
a(S'FKSG68'
p370
g92
tp371
a(S'LAMP2'
p372
S'PLXNB3'
p373
tp374
a(g97
g237
tp375
a(g203
S'PIR'
p376
tp377
a(S'ANKRD30A'
p378
g120
tp379
a(S'AGAP3'
p380
S'CT47B1'
p381
tp382
a(S'AHNAK2'
p383
S'PRAMEF4'
p384
tp385
a(S'LRRC48'
p386
S'RPL13A'
p387
tp388
a(g186
g272
tp389
a(g6
g237
tp390
a(g57
S'FADS6'
p391
tp392
a(S'AC115618.1'
p393
S'PILRB'
p394
tp395
a(g95
g226
tp396
a(g75
g195
tp397
a(S'CXorf40B'
p398
S'MAGEA6'
p399
tp400
a(g248
S'MT-CO3'
p401
tp402
a(S'RNF19B'
p403
S'RP1L1'
p404
tp405
a(S'KIAA1210'
p406
S'TMEM128'
p407
tp408
a(g21
S'RNF19B'
p409
tp410
a(S'GNL3L'
p411
S'LPAR6'
p412
tp413
a(S'AP001055.1'
p414
S'ELF4'
p415
tp416
a(S'AGAP3'
p417
g163
tp418
a(S'APBB1IP'
p419
g415
tp420
a(S'FRMD7'
p421
S'WAS'
p422
tp423
a(S'ALAS2'
p424
S'RP11-97O12.7'
p425
tp426
a(S'AL390778.1'
p427
g407
tp428
a(S'FADS6'
p429
S'GGT2'
p430
tp431
a(g316
g373
tp432
a(S'ACTR1B'
p433
S'TPPP'
p434
tp435
a(S'FKSG68'
p436
g112
tp437
a(S'CLCNKA'
p438
g209
tp439
a(g329
g6
tp440
a(S'CCDC22'
p441
S'PCDH11Y'
p442
tp443
a(S'DKC1'
p444
g436
tp445
a(S'CEL'
p446
g398
tp447
a(g261
S'ZNF772'
p448
tp449
a(S'AP003062.1'
p450
g334
tp451
a(S'AGAP3'
p452
g89
tp453
a(S'IGHJ6'
p454
S'KAT2B'
p455
tp456
a(S'LPAR6'
p457
g240
tp458
a(g329
g457
tp459
a(g20
S'HCFC1'
p460
tp461
a(g341
g198
tp462
a(g163
g201
tp463
a(S'CNKSR2'
p464
S'SASH1'
p465
tp466
a(S'SENP3'
p467
g169
tp468
a(S'APBB1IP'
p469
S'MTMR8'
p470
tp471
a(S'GPR112'
p472
g470
tp473
a(S'IGHJ6'
p474
S'WFDC8'
p475
tp476
a(g112
S'PAGE5'
p477
tp478
a(g215
S'NBPF12'
p479
tp480
a(g376
S'RIMBP3'
p481
tp482
a(g156
S'ZCCHC5'
p483
tp484
a(S'KRT1'
p485
S'NBPF12'
p486
tp487
a(S'FKSG68'
p488
S'WDR27'
p489
tp490
a(S'AL160286.1'
p491
S'GNG5'
p492
tp493
a(S'ARL4A'
p494
S'NINL'
p495
tp496
a(S'AL390778.1'
p497
g142
tp498
a(S'IQCC'
p499
g86
tp500
a(g5
g310
tp501
a(S'KRTAP5-5'
p502
S'ZNF571'
p503
tp504
a(S'APBB1IP'
p505
S'PRR23D1'
p506
tp507
a(g412
g89
tp508
a(S'IGHJ6'
p509
g499
tp510
a(S'CDX4'
p511
g73
tp512
a(S'ARL13A'
p513
g152
tp514
a(S'PLXNB3'
p515
g293
tp516
a(S'APBB1IP'
p517
g219
tp518
a(S'ADCY1'
p519
g89
tp520
a(g163
g153
tp521
a(S'LPAR6'
p522
g313
tp523
a(g271
S'PNMA5'
p524
tp525
a(S'APBB1IP'
p526
S'MYH4'
p527
tp528
a(g344
S'TBC1D7'
p529
tp530
a(S'MT-ND6'
p531
S'ZNF630'
p532
tp533
a(S'DNAH5'
p534
g15
tp535
a(g109
S'RNF213'
p536
tp537
a(g105
g332
tp538
a(g274
g281
tp539
a(g281
S'LPAR6'
p540
tp541
a(g427
g329
tp542
a(S'LPAR6'
p543
S'OBSCN'
p544
tp545
a(g526
S'FADS6'
p546
tp547
a(g421
g407
tp548
a(g383
g272
tp549
a(S'MT-CYB'
p550
g256
tp551
a(g23
g477
tp552
a(g427
g5
tp553
a(g414
g130
tp554
a(S'IGHJ6'
p555
g193
tp556
a(S'NHS'
p557
g267
tp558
a(g275
g316
tp559
a(S'FADS6'
p560
S'FKSG68'
p561
tp562
a(g406
g237
tp563
a(S'IGHJ6'
p564
S'MRI1'
p565
tp566
a(S'KCND1'
p567
g293
tp568
a(g36
S'RP11-97O12.7'
p569
tp570
a(S'ARHGEF6'
p571
S'TPPP'
p572
tp573
a(g183
S'RNF19B'
p574
tp575
a(g218
S'SSX1'
p576
tp577
a(S'RPGR'
p578
g92
tp579
a(S'HEPHL1'
p580
g129
tp581
a(g137
g114
tp582
a(S'TSPYL2'
p583
g3
tp584
a(S'AP003062.1'
p585
g332
tp586
a(S'APBB1IP'
p587
g51
tp588
a(S'APBB1IP'
p589
S'CTAGE8'
p590
tp591
a(g567
g515
tp592
a(g295
g105
tp593
a(g168
g129
tp594
a(S'MAGEC1'
p595
S'ZP3'
p596
tp597
a(S'LPAR6'
p598
S'TMEM247'
p599
tp600
a(S'AGAP3'
p601
S'TAS2R43'
p602
tp603
a(S'FADS6'
p604
S'KIF4A'
p605
tp606
a(g61
S'ZIC3'
p607
tp608
a(g272
S'IGHJ6'
p609
tp610
a(g21
S'SCN4A'
p611
tp612
a(g253
S'DUX4L4'
p613
tp614
a(g150
g103
tp615
a(g264
g169
tp616
a(S'FAM46A'
p617
S'ZNF681'
p618
tp619
a(g393
g609
tp620
a(g415
S'LPAR6'
p621
tp622
a(g51
g9
tp623
a(S'AKAP4'
p624
S'SAMD1'
p625
tp626
a(g192
g3
tp627
a(g370
g14
tp628
a(g357
g607
tp629
a(S'MT-CYB'
p630
S'SAMD1'
p631
tp632
a(g494
g235
tp633
a(g261
S'PJA1'
p634
tp635
a(g544
S'TAS2R43'
p636
tp637
a(S'MT-ND5'
p638
S'NBPF12'
p639
tp640
a(S'CXorf36'
p641
g334
tp642
a(g196
g95
tp643
a(g258
S'TPPP'
p644
tp645
a(S'AC009060.1'
p646
S'AL160286.1'
p647
tp648
a(g331
g296
tp649
a(g195
g95
tp650
a(S'AKAP4'
p651
g99
tp652
a(g607
S'ZNF81'
p653
tp654
a(g219
S'LPAR6'
p655
tp656
a(g252
g387
tp657
a(g88
g61
tp658
a(S'AFF2'
p659
g204
tp660
a(g134
g64
tp661
a(S'GNG5'
p662
S'GOLGA8T'
p663
tp664
a(g381
S'TPPP'
p665
tp666
a(S'LPAR6'
p667
g171
tp668
a(S'GABRA3'
p669
g97
tp670
a(g667
g201
tp671
a(g6
g578
tp672
a(g118
S'ZNF571'
p673
tp674
a(S'CTAGE8'
p675
S'INTS4L2'
p676
tp677
a(g225
g171
tp678
a(g21
g109
tp679
a(S'FMR1'
p680
S'FRMPD2'
p681
tp682
a(S'AC009060.1'
p683
S'ZNF41'
p684
tp685
a(S'AC026740.1'
p686
g386
tp687
a(S'KMT2C'
p688
g121
tp689
a(g21
g536
tp690
a(g349
g634
tp691
a(g225
S'OFD1'
p692
tp693
a(S'AC009060.1'
p694
S'TPPP'
p695
tp696
a(g240
g14
tp697
a(g20
S'MAGEC1'
p698
tp699
a(S'FAM99A'
p700
g455
tp701
a(S'PCNT'
p702
S'TPPP'
p703
tp704
a(g454
g618
tp705
a(g223
S'NUTM2B'
p706
tp707
a(g655
g3
tp708
a(S'CPXCR1'
p709
S'MAGEA1'
p710
tp711
a(g519
S'AL160286.1'
p712
tp713
a(g351
g517
tp714
a(g86
S'VPS13D'
p715
tp716
a(g193
S'ZNF571'
p717
tp718
a(g172
g95
tp719
a(S'IGSF1'
p720
g66
tp721
a(g421
g578
tp722
a(g229
S'NOX1'
p723
tp724
a(S'WDFY3-AS2'
p725
S'hsa-mir-6080'
p726
tp727
a(S'LPAR6'
p728
g86
tp729
a(S'AGAP3'
p730
g618
tp731
a(g91
g97
tp732
a(g354
g312
tp733
a(g465
g278
tp734
a(g20
g409
tp735
a(S'LNP1'
p736
S'SYTL4'
p737
tp738
a(g452
g357
tp739
a(g540
S'PRDX4'
p740
tp741
a(S'MAGEA6'
p742
g9
tp743
a(S'CFP'
p744
g163
tp745
a(g444
g177
tp746
a(S'AL160286.1'
p747
g308
tp748
a(S'SSX5'
p749
g124
tp750
a(S'ANKRD20A2'
p751
S'IGHJ6'
p752
tp753
a(S'GABRB2'
p754
S'TPPP'
p755
tp756
a(g108
g444
tp757
a(S'DSPP'
p758
S'KIR3DL1'
p759
tp760
a(S'AP003062.1'
p761
g698
tp762
a(S'AC026740.1'
p763
g57
tp764
a(g663
g363
tp765
a(S'LPAR6'
p766
S'NOP9'
p767
tp768
a(g141
S'ZNF41'
p769
tp770
a(g201
g76
tp771
a(g710
g83
tp772
a(g6
g15
tp773
a(S'AP003062.1'
p774
S'PLP2'
p775
tp776
a(g534
g421
tp777
a(g171
S'RNF19B'
p778
tp779
a(g215
S'KRT1'
p780
tp781
a(S'GOLGA6L18'
p782
S'RNF19B'
p783
tp784
a(g75
g152
tp785
a(g192
g55
tp786
a(g372
g442
tp787
a(g534
g457
tp788
a(g641
S'RP11-97O12.7'
p789
tp790
a(g218
g99
tp791
a(g621
S'PCDHA10'
p792
tp793
a(g64
g363
tp794
a(g213
S'TSPAN18'
p795
tp796
a(g261
S'MTMR1'
p797
tp798
a(g709
S'RP11-97O12.7'
p799
tp800
a(g546
g18
tp801
a(g720
g403
tp802
a(S'CXorf36'
p803
g737
tp804
a(g76
g226
tp805
a(g97
g14
tp806
a(S'LPAR6'
p807
g115
tp808
a(S'ATXN3'
p809
S'SPATA31A3'
p810
tp811
a(g641
g534
tp812
a(g601
S'RPGR'
p813
tp814
a(g52
g322
tp815
a(g305
g489
tp816
a(g126
g38
tp817
a(g489
S'hsa-mir-6080'
p818
tp819
a(g511
S'LPAR6'
p820
tp821
a(g517
g2
tp822
a(g88
S'KRR1'
p823
tp824
a(S'C1GALT1C1'
p825
g465
tp826
a(g767
g602
tp827
a(g415
S'SH3BGRL'
p828
tp829
a(g555
g583
tp830
a(g560
g470
tp831
a(S'SMYD4'
p832
g243
tp833
a(g163
g692
tp834
a(g427
g310
tp835
a(g742
g114
tp836
a(S'JADE3'
p837
g625
tp838
a(g517
g55
tp839
a(g203
g256
tp840
a(g393
S'AGAP3'
p841
tp842
a(g248
S'GOLGA6L2'
p843
tp844
a(S'TPPP'
p845
g483
tp846
a(g444
g21
tp847
a(S'IGHJ6'
p848
g823
tp849
a(g101
g407
tp850
a(g848
g89
tp851
a(g97
g238
tp852
a(S'FAM46A'
p853
g404
tp854
a(S'AGAP3'
p855
g529
tp856
a(g349
S'RBMXL3'
p857
tp858
a(S'APBB1IP'
p859
S'TTF2'
p860
tp861
a(g345
g529
tp862
a(S'NUTM2E'
p863
g262
tp864
a(S'RP11-706O15.1'
p865
S'TPPP'
p866
tp867
a(g411
g607
tp868
a(S'APOL4'
p869
g199
tp870
a(g744
g283
tp871
a(g316
g540
tp872
a(S'AGAP3'
p873
g495
tp874
a(g700
S'RP11-97O12.7'
p875
tp876
a(g70
g92
tp877
a(g381
g387
tp878
a(g609
g384
tp879
a(g680
g139
tp880
a(g240
g407
tp881
a(g192
g54
tp882
a(g368
S'ASXL1'
p883
tp884
a(g264
g828
tp885
a(g356
g653
tp886
a(g370
g97
tp887
a(g624
g215
tp888
a(g464
g634
tp889
a(S'LPAR6'
p890
g565
tp891
a(g497
g259
tp892
a(g261
g863
tp893
a(g497
g365
tp894
a(g298
S'NBPF10'
p895
tp896
a(g761
g108
tp897
a(g655
g193
tp898
a(g415
g129
tp899
a(g152
g95
tp900
a(g35
g755
tp901
a(S'CCNB3'
p902
g663
tp903
a(S'MT-ND5'
p904
S'RNF19B'
p905
tp906
a(g669
g92
tp907
a(S'AGAP3'
p908
g54
tp909
a(g49
g132
tp910
a(S'UBXN11'
p911
g596
tp912
a(g415
g580
tp913
a(g427
g97
tp914
a(g803
g38
tp915
a(g192
g655
tp916
a(g165
S'RIMBP3'
p917
tp918
a(S'AP001055.1'
p919
g229
tp920
a(g853
g529
tp921
a(S'RP11-97O12.7'
p922
g715
tp923
a(g156
g749
tp924
a(g345
g404
tp925
a(S'NBPF12'
p926
g596
tp927
a(g60
g607
tp928
a(g70
g14
tp929
a(g444
g291
tp930
a(g454
S'POF1B'
p931
tp932
a(g129
S'RP1L1'
p933
tp934
a(S'FKSG68'
p935
g208
tp936
a(g72
g332
tp937
a(S'AP003062.1'
p938
g373
tp939
a(g168
g933
tp940
a(g774
g404
tp941
a(g82
g710
tp942
a(g730
g931
tp943
a(g281
g373
tp944
a(g825
g634
tp945
a(S'C16orf89'
p946
g123
tp947
a(g231
g475
tp948
a(S'TBP'
p949
S'WDR27'
p950
tp951
a(g646
g33
tp952
a(g926
S'RIMBP3'
p953
tp954
a(g219
g54
tp955
a(g219
g193
tp956
a(g24
g477
tp957
a(g323
g115
tp958
a(g651
g54
tp959
a(S'AC138393.1'
p960
S'ZNF571'
p961
tp962
a(g744
g152
tp963
a(g406
g578
tp964
a(S'FKSG68'
p965
g41
tp966
a(g605
g66
tp967
a(g370
g578
tp968
a(g80
g15
tp969
a(g680
g795
tp970
a(S'RP11-97O12.7'
p971
g357
tp972
a(g20
g112
tp973
a(g604
g66
tp974
a(g11
g99
tp975
a(g460
g177
tp976
a(g712
g653
tp977
a(S'CAPN6'
p978
g249
tp979
a(g441
g572
tp980
a(g841
g186
tp981
a(S'ASPN'
p982
g231
tp983
a(g519
g88
tp984
a(g83
S'TPPP'
p985
tp986
a(S'DUX4L4'
p987
g565
tp988
a(g536
g611
tp989
a(S'ADCY2'
p990
S'RP11-368I7.4'
p991
tp992
a(g406
g92
tp993
a(g193
S'TAF1'
p994
tp995
a(g44
S'NNT'
p996
tp997
a(g92
g14
tp998
a(g421
g789
tp999
a(g576
g994
tp1000
a(g495
g302
tp1001
a(S'PCDH11Y'
p1002
g72
tp1003
a(g315
g442
tp1004
a(g464
g857
tp1005
a(g502
g495
tp1006
a(g497
g327
tp1007
a(S'AC009060.1'
p1008
g54
tp1009
a(g189
g532
tp1010
a(g82
S'RNF19B'
p1011
tp1012
a(g196
g153
tp1013
a(g24
g112
tp1014
a(g703
S'TREX2'
p1015
tp1016
a(g24
S'hsa-mir-6080'
p1017
tp1018
a(g938
g316
tp1019
a(g5
g534
tp1020
a(g12
g193
tp1021
a(g105
S'GNG5'
p1022
tp1023
a(g129
g828
tp1024
a(g675
g285
tp1025
a(g495
g503
tp1026
a(S'AL390778.1'
p1027
g737
tp1028
a(S'MPI'
p1029
g448
tp1030
a(g680
g1011
tp1031
a(g747
g524
tp1032
a(g163
g172
tp1033
a(g1022
S'RP11-97O12.7'
p1034
tp1035
a(S'CTAGE8'
p1036
S'TAS2R43'
p1037
tp1038
a(g590
g304
tp1039
a(S'AP003062.1'
p1040
g950
tp1041
a(S'KIAA0040'
p1042
g631
tp1043
a(g349
g1029
tp1044
a(g546
g527
tp1045
a(S'AHNAK2'
p1046
g1017
tp1047
a(g17
g527
tp1048
a(g744
g667
tp1049
a(g651
g55
tp1050
a(S'AP003062.1'
p1051
g506
tp1052
a(g291
g536
tp1053
a(g192
g12
tp1054
a(g767
S'RP11-97O12.7'
p1055
tp1056
a(g180
g950
tp1057
a(g667
g196
tp1058
a(S'APBB1IP'
p1059
g240
tp1060
a(g522
S'RP1L1'
p1061
tp1062
a(S'FANCB'
p1063
g662
tp1064
a(g452
g653
tp1065
a(S'AP003062.1'
p1066
g495
tp1067
a(g54
g11
tp1068
a(g54
g99
tp1069
a(S'APBB1IP'
p1070
g495
tp1071
a(g513
g158
tp1072
a(S'ATN1'
p1073
S'TPPP'
p1074
tp1075
a(g101
g238
tp1076
a(g63
g47
tp1077
a(S'DGCR6'
p1078
g783
tp1079
a(S'LRRC48'
p1080
g442
tp1081
a(S'AGAP3'
p1082
g208
tp1083
a(S'AGAP3'
p1084
g647
tp1085
a(S'COL4A5'
p1086
g702
tp1087
a(g692
g172
tp1088
a(S'IGSF1'
p1089
g479
tp1090
a(S'AL390778.1'
p1091
g751
tp1092
a(g353
g1061
tp1093
a(g310
g457
tp1094
a(g201
g171
tp1095
a(g560
g105
tp1096
a(g412
g653
tp1097
a(g353
S'IGHJ6'
p1098
tp1099
a(g171
g692
tp1100
a(g5
g70
tp1101
a(S'CTAGE8'
p1102
S'ZNF571'
p1103
tp1104
a(g585
g560
tp1105
a(g908
g55
tp1106
a(g393
g307
tp1107
a(S'AGAP6'
p1108
g630
tp1109
a(g219
g576
tp1110
a(g446
S'VCX'
p1111
tp1112
a(g534
g329
tp1113
a(g129
g792
tp1114
a(g647
S'AP003062.1'
p1115
tp1116
a(g543
g305
tp1117
a(g740
g572
tp1118
a(g450
g310
tp1119
a(g365
g161
tp1120
a(g86
g695
tp1121
a(S'ZNF571'
p1122
g618
tp1123
a(g137
g9
tp1124
a(g567
g223
tp1125
a(g149
g803
tp1126
a(g43
g665
tp1127
a(g406
g334
tp1128
a(g902
g1063
tp1129
a(g853
g720
tp1130
a(g571
g372
tp1131
a(g624
g780
tp1132
a(g348
g857
tp1133
a(g43
g381
tp1134
a(g115
g9
tp1135
a(g519
g61
tp1136
a(g720
S'TPPP'
p1137
tp1138
a(g902
g363
tp1139
a(g272
g394
tp1140
a(g583
g717
tp1141
a(g393
g747
tp1142
a(g307
S'RP11-97O12.7'
p1143
tp1144
a(g555
g717
tp1145
a(g353
S'RP11-97O12.7'
p1146
tp1147
a(g103
S'PHKA2'
p1148
tp1149
a(g134
g663
tp1150
a(g127
g737
tp1151
a(g700
g454
tp1152
a(g965
g782
tp1153
a(S'AGAP3'
p1154
g316
tp1155
a(S'AGAP8'
p1156
g255
tp1157
a(g192
g99
tp1158
a(g441
g373
tp1159
a(g219
g583
tp1160
a(S'CTD-2014B16.3'
p1161
g269
tp1162
a(g1086
g474
tp1163
a(g580
g467
tp1164
a(S'PDZD4'
p1165
g332
tp1166
a(g994
g3
tp1167
a(g310
g578
tp1168
a(g543
g489
tp1169
a(g513
g778
tp1170
a(g524
g384
tp1171
a(g419
g130
tp1172
a(g327
S'LPAR6'
p1173
tp1174
a(g2
S'RP11-97O12.7'
p1175
tp1176
a(g281
g740
tp1177
a(g457
g69
tp1178
a(g252
S'APBB1IP'
p1179
tp1180
a(g12
g576
tp1181
a(g1080
S'MT-ND5'
p1182
tp1183
a(g1156
g203
tp1184
a(g441
g1080
tp1185
a(g245
g479
tp1186
a(g155
g123
tp1187
a(g751
S'FKSG68'
p1188
tp1189
a(g450
g237
tp1190
a(g60
g357
tp1191
a(S'MUM1L1'
p1192
S'RRP36'
p1193
tp1194
a(g700
g618
tp1195
a(g904
S'ZNF571'
p1196
tp1197
a(g66
g404
tp1198
a(g953
S'SLC9B1P1'
p1199
tp1200
a(g1008
g192
tp1201
a(S'FKSG68'
p1202
g524
tp1203
a(g201
g172
tp1204
a(g1059
g334
tp1205
a(g571
g1182
tp1206
a(S'AL160286.1'
p1207
g517
tp1208
a(g534
g237
tp1209
a(g189
g1193
tp1210
a(g111
g21
tp1211
a(g94
g172
tp1212
a(g994
g583
tp1213
a(g477
g611
tp1214
a(g329
g237
tp1215
a(g655
g576
tp1216
a(g38
g737
tp1217
a(g424
g123
tp1218
a(S'LPAR6'
p1219
g527
tp1220
a(g1108
g639
tp1221
a(g513
g692
tp1222
a(g82
g175
tp1223
a(g409
g1017
tp1224
a(g310
g6
tp1225
a(g855
g775
tp1226
a(g380
g996
tp1227
a(g488
g304
tp1228
a(g310
g334
tp1229
a(g855
g344
tp1230
a(g366
g644
tp1231
a(g663
S'RP11-353N4.8'
p1232
tp1233
a(g938
g1080
tp1234
a(g27
S'LPAR6'
p1235
tp1236
a(g76
g172
tp1237
a(g938
g281
tp1238
a(g775
g67
tp1239
a(g218
g55
tp1240
a(g163
g152
tp1241
a(g908
g576
tp1242
a(g464
g278
tp1243
a(S'BEX2'
p1244
g323
tp1245
a(g782
g58
tp1246
a(g578
g422
tp1247
a(g857
g465
tp1248
a(g134
g662
tp1249
a(g450
g15
tp1250
a(g75
g163
tp1251
a(g863
g448
tp1252
a(g1086
S'FAM9A'
p1253
tp1254
a(g175
g795
tp1255
a(g277
g262
tp1256
a(g11
g576
tp1257
a(g234
g494
tp1258
a(g477
g536
tp1259
a(g95
g153
tp1260
a(g261
g278
tp1261
a(g20
g177
tp1262
a(S'RNF19B'
p1263
g860
tp1264
a(g599
g726
tp1265
a(g845
g124
tp1266
a(g469
g106
tp1267
a(g252
g381
tp1268
a(g825
g448
tp1269
a(S'FRMPD2'
p1270
S'LGALS9C'
p1271
tp1272
a(g310
g237
tp1273
a(g651
g219
tp1274
a(g472
g820
tp1275
a(g599
g1103
tp1276
a(S'AC068620.1'
p1277
S'ZNF571'
p1278
tp1279
a(g33
S'TPPP'
p1280
tp1281
a(g325
g895
tp1282
a(g609
g524
tp1283
a(g560
g106
tp1284
a(g1015
g232
tp1285
a(g497
g160
tp1286
a(g860
g209
tp1287
a(g168
S'ACE2'
p1288
tp1289
a(g1199
g596
tp1290
a(g544
g818
tp1291
a(g55
g193
tp1292
a(g312
S'WDFY3-AS2'
p1293
tp1294
a(g171
g76
tp1295
a(g651
g12
tp1296
a(g80
g407
tp1297
a(g27
g103
tp1298
a(g123
g845
tp1299
a(g550
g204
tp1300
a(g460
g109
tp1301
a(g415
g467
tp1302
a(S'AMER1'
p1303
g532
tp1304
a(g825
g797
tp1305
a(g1040
g949
tp1306
a(S'FADS6'
p1307
S'TSPAN18'
p1308
tp1309
a(g1046
g409
tp1310
a(g5
g669
tp1311
a(g160
g769
tp1312
a(S'LPAR6'
p1313
g475
tp1314
a(g69
g6
tp1315
a(S'ASPN'
p1316
g673
tp1317
a(S'CP'
p1318
g486
tp1319
a(g381
g613
tp1320
a(g571
g315
tp1321
a(g430
S'RHD'
p1322
tp1323
a(g23
g112
tp1324
a(g301
g503
tp1325
a(S'ITIH6'
p1326
g425
tp1327
a(S'FKSG68'
p1328
g720
tp1329
a(g946
g124
tp1330
a(g26
g127
tp1331
a(g242
S'AGAP3'
p1332
tp1333
a(g843
g401
tp1334
a(g436
g21
tp1335
a(S'ASPN'
p1336
g30
tp1337
a(g54
g3
tp1338
a(g20
g1017
tp1339
a(g908
g583
tp1340
a(g43
g996
tp1341
a(g469
g72
tp1342
a(S'AGAP3'
p1343
g312
tp1344
a(g372
g540
tp1345
a(S'AC009060.1'
p1346
g384
tp1347
a(g659
g255
tp1348
a(g111
g477
tp1349
a(g82
g680
tp1350
a(g709
g795
tp1351
a(g349
g448
tp1352
a(g29
g905
tp1353
a(g351
g576
tp1354
a(g82
S'hsa-mir-6080'
p1355
tp1356
a(S'FKSG68'
p1357
g996
tp1358
a(g774
g345
tp1359
a(g411
g653
tp1360
a(g272
g187
tp1361
a(g638
S'SLC9B1P1'
p1362
tp1363
a(g630
g639
tp1364
a(g341
g832
tp1365
a(g234
g495
tp1366
a(g631
S'UBXN11'
p1367
tp1368
a(g460
g611
tp1369
a(g683
g149
tp1370
a(g1108
g1367
tp1371
a(g38
g736
tp1372
a(g186
g609
tp1373
a(g1063
g663
tp1374
a(S'CENPI'
p1375
g766
tp1376
a(g946
S'GNG5'
p1377
tp1378
a(g450
g407
tp1379
a(g351
g54
tp1380
a(S'KIAA1211L'
p1381
g325
tp1382
a(g55
g1175
tp1383
a(g296
g332
tp1384
a(g669
g422
tp1385
a(g344
g66
tp1386
a(g329
g789
tp1387
a(g1288
g264
tp1388
a(S'FRMD8'
p1389
g235
tp1390
a(g499
g922
tp1391
a(g274
g1154
tp1392
a(g990
S'MT-CYB'
p1393
tp1394
a(g381
g386
tp1395
a(g11
g994
tp1396
a(g736
g1148
tp1397
a(S'AGAP3'
p1398
g680
tp1399
a(g659
g481
tp1400
a(g368
g832
tp1401
a(g69
g97
tp1402
a(S'KIAA0040'
p1403
g399
tp1404
a(g348
g1029
tp1405
a(S'FAM46A'
p1406
g483
tp1407
a(g433
S'WFDC8'
p1408
tp1409
a(S'OPN1LW'
p1410
g147
tp1411
a(g761
g23
tp1412
a(g602
g673
tp1413
a(S'ASMTL'
p1414
S'TPPP'
p1415
tp1416
a(g742
g323
tp1417
a(g226
g283
tp1418
a(g112
g698
tp1419
a(g1389
g301
tp1420
a(g438
g1263
tp1421
a(g1154
g441
tp1422
a(g147
S'USP17L10'
p1423
tp1424
a(g1027
g736
tp1425
a(g70
g6
tp1426
a(g258
g365
tp1427
a(g142
g160
tp1428
a(g883
g198
tp1429
a(g564
g950
tp1430
a(g736
g132
tp1431
a(g1036
g231
tp1432
a(g1080
g740
tp1433
a(g108
g460
tp1434
a(g427
g421
tp1435
a(g472
g1165
tp1436
a(g152
g283
tp1437
a(g55
g576
tp1438
a(g807
g114
tp1439
a(g1389
g495
tp1440
a(g234
g1389
tp1441
a(g315
g281
tp1442
a(g99
g3
tp1443
a(S'GPR50'
p1444
g1410
tp1445
a(g601
g767
tp1446
a(g799
g213
tp1447
a(g18
g267
tp1448
a(g152
g778
tp1449
a(g587
g742
tp1450
a(g1326
g156
tp1451
a(g192
g994
tp1452
a(g789
g92
tp1453
a(g560
g1165
tp1454
a(g646
g574
tp1455
a(g175
g213
tp1456
a(g183
g33
tp1457
a(g1148
g132
tp1458
a(g316
g372
tp1459
a(S'FAM46A'
p1460
g394
tp1461
a(g127
g1235
tp1462
a(S'FAM155B'
p1463
g430
tp1464
a(g1063
g135
tp1465
a(g1027
g132
tp1466
a(g1046
g24
tp1467
a(g683
g38
tp1468
a(g60
g653
tp1469
a(g424
g1406
tp1470
a(g978
g446
tp1471
a(g307
g187
tp1472
a(g434
g299
tp1473
a(g446
g401
tp1474
a(g406
g101
tp1475
a(g534
g240
tp1476
a(g511
g472
tp1477
a(g117
g813
tp1478
a(g329
g240
tp1479
a(g694
g509
tp1480
a(g938
g275
tp1481
a(g778
g226
tp1482
a(g275
g572
tp1483
a(g344
g1137
tp1484
a(g1040
g180
tp1485
a(g142
g259
tp1486
a(g1148
g684
tp1487
a(g172
g283
tp1488
a(g1027
g126
tp1489
a(g823
g607
tp1490
a(g225
g283
tp1491
a(g655
g11
tp1492
a(g511
g1022
tp1493
a(g1015
g475
tp1494
a(g982
g1036
tp1495
a(g132
g684
tp1496
a(g585
g105
tp1497
a(S'AGAP3'
p1498
g86
tp1499
a(g621
g467
tp1500
a(g470
g1165
tp1501
a(g152
g226
tp1502
a(g329
g578
tp1503
a(g604
g775
tp1504
a(S'PILRB'
p1505
g147
tp1506
a(g281
g1182
tp1507
a(g345
g775
tp1508
a(g351
g12
tp1509
a(g676
g286
tp1510
a(g6
g92
tp1511
a(g1336
g904
tp1512
a(g669
g457
tp1513
a(g411
g971
tp1514
a(g127
g684
tp1515
a(g417
g513
tp1516
a(g457
g237
tp1517
a(S'HLCS'
p1518
g783
tp1519
a(g153
g283
tp1520
a(g1161
g949
tp1521
a(g469
g472
tp1522
a(g406
g457
tp1523
a(S'AP003062.1'
p1524
g88
tp1525
a(g669
g70
tp1526
a(g43
g253
tp1527
a(g774
g853
tp1528
a(g531
g189
tp1529
a(g1410
g1423
tp1530
a(g393
g1460
tp1531
a(g253
g996
tp1532
a(g624
S'TBL1Y'
p1533
tp1534
a(g353
g1343
tp1535
a(g406
g6
tp1536
a(g158
g226
tp1537
a(g534
g97
tp1538
a(g636
g489
tp1539
a(g841
g272
tp1540
a(g417
g153
tp1541
a(g280
g372
tp1542
a(g310
g240
tp1543
a(g8
g114
tp1544
a(g286
g991
tp1545
a(g813
g602
tp1546
a(g378
g567
tp1547
a(g24
g536
tp1548
a(g75
g95
tp1549
a(g142
g644
tp1550
a(g571
g275
tp1551
a(g1406
g123
tp1552
a(g460
g24
tp1553
a(g446
g248
tp1554
a(g103
g737
tp1555
a(g108
g436
tp1556
a(g94
g153
tp1557
a(g319
g532
tp1558
a(g248
g1403
tp1559
a(g126
g132
tp1560
a(g667
g153
tp1561
a(g274
g442
tp1562
a(S'FKSG68'
p1563
g904
tp1564
a(g1410
g1505
tp1565
a(g155
g845
tp1566
a(g767
g673
tp1567
a(g274
g571
tp1568
a(g641
g329
tp1569
a(S'FKSG68'
p1570
g618
tp1571
a(g339
g832
tp1572
a(g150
g684
tp1573
a(g327
g160
tp1574
a(g142
g327
tp1575
a(S'COG1'
p1576
S'LURAP1L'
p1577
tp1578
a(S'FADS6'
p1579
g860
tp1580
a(g1165
g296
tp1581
a(g1328
g775
tp1582
a(g368
g869
tp1583
a(g1182
g442
tp1584
a(g651
g193
tp1585
a(g1524
g357
tp1586
a(g69
g240
tp1587
a(g277
g797
tp1588
a(g531
g1193
tp1589
a(g334
g14
tp1590
a(g774
g67
tp1591
a(g368
g341
tp1592
a(g393
g383
tp1593
a(g246
g625
tp1594
a(g225
g201
tp1595
a(g5
g457
tp1596
a(g201
g153
tp1597
a(g509
g715
tp1598
a(g41
g58
tp1599
a(g1022
g472
tp1600
a(g146
g1410
tp1601
a(g105
g331
tp1602
a(S'AL160286.1'
p1603
g228
tp1604
a(g436
g460
tp1605
a(g310
g669
tp1606
a(S'FKSG68'
p1607
g86
tp1608
a(g517
g193
tp1609
a(g222
g293
tp1610
a(g994
g99
tp1611
a(g24
g291
tp1612
a(g150
g736
tp1613
a(g94
g196
tp1614
a(g651
g2
tp1615
a(g488
g305
tp1616
a(g8
S'hsa-mir-6080'
p1617
tp1618
a(g990
g676
tp1619
a(g213
g985
tp1620
a(g12
g1175
tp1621
a(g370
g15
tp1622
a(S'FAM21B'
p1623
g1193
tp1624
a(g109
g291
tp1625
a(g155
g1377
tp1626
a(g365
g644
tp1627
a(g483
g124
tp1628
a(g1046
g611
tp1629
a(g199
g243
tp1630
a(g329
g406
tp1631
a(S'KIAA0040'
p1632
S'ZIC5'
p1633
tp1634
a(g383
g1460
tp1635
a(g1022
g296
tp1636
a(g427
g14
tp1637
a(g747
g394
tp1638
a(g560
g296
tp1639
a(g534
g406
tp1640
a(g1326
g483
tp1641
a(g698
g611
tp1642
a(S'SRPX'
p1643
g475
tp1644
a(g38
g1235
tp1645
a(g225
g153
tp1646
a(g797
g262
tp1647
a(g341
g243
tp1648
a(g908
g2
tp1649
a(g1036
g475
tp1650
a(g117
g673
tp1651
a(g27
g49
tp1652
a(g1011
g83
tp1653
a(g1643
g1015
tp1654
a(g1202
g272
tp1655
a(g938
g571
tp1656
a(g70
g578
tp1657
a(g825
g349
tp1658
a(g315
g1080
tp1659
a(g5
g69
tp1660
a(g803
g49
tp1661
a(g427
g534
tp1662
a(g310
g14
tp1663
a(g464
g863
tp1664
a(g519
g452
tp1665
a(g357
g653
tp1666
a(g180
g890
tp1667
a(g681
g795
tp1668
a(g235
g503
tp1669
a(g51
g114
tp1670
a(g683
g126
tp1671
a(g373
g740
tp1672
a(g1377
g124
tp1673
a(g40
g782
tp1674
a(g411
g357
tp1675
a(g8
g587
tp1676
a(S'FADS6'
p1677
g755
tp1678
a(g663
g47
tp1679
a(g329
g669
tp1680
a(g775
g404
tp1681
a(g61
g653
tp1682
a(g1288
g467
tp1683
a(g866
g1293
tp1684
a(g457
g101
tp1685
a(g550
g481
tp1686
a(g299
g1408
tp1687
a(S'BHLHB9'
p1688
S'FAM46A'
p1689
tp1690
a(g61
g411
tp1691
a(g310
g406
tp1692
a(g782
S'RP11-97O12.7'
p1693
tp1694
a(g444
g1017
tp1695
a(g315
g275
tp1696
a(g137
g115
tp1697
a(g245
g216
tp1698
a(g80
g789
tp1699
a(g49
g684
tp1700
a(g681
g985
tp1701
a(g411
g823
tp1702
a(g144
g15
tp1703
a(g502
g235
tp1704
a(g990
S'FAM46A'
p1705
tp1706
a(g460
g409
tp1707
a(g651
g555
tp1708
a(g1253
g1643
tp1709
a(g1080
g572
tp1710
a(g630
g638
tp1711
a(g76
g95
tp1712
a(g75
g172
tp1713
a(g1165
g72
tp1714
a(g744
g76
tp1715
a(S'AC009060.1'
p1716
g987
tp1717
a(g281
g1080
tp1718
a(g517
g192
tp1719
a(g475
g232
tp1720
a(g470
g296
tp1721
a(g761
g21
tp1722
a(g23
g1017
tp1723
a(g187
S'LPAR6'
p1724
tp1725
a(g295
g511
tp1726
a(g1008
g219
tp1727
a(g511
g331
tp1728
a(g264
g792
tp1729
a(g92
g238
tp1730
a(g710
g799
tp1731
a(g272
g1143
tp1732
a(g919
g723
tp1733
a(g117
g1055
tp1734
a(g174
g83
tp1735
a(g111
g460
tp1736
a(g141
g160
tp1737
a(g669
g101
tp1738
a(g252
g996
tp1739
a(g406
g69
tp1740
a(g155
g124
tp1741
a(g1098
g1293
tp1742
a(g578
g238
tp1743
a(g1042
g1362
tp1744
a(g1046
g436
tp1745
a(g186
g307
tp1746
a(g285
g991
tp1747
a(S'APBB1IP'
p1748
g1078
tp1749
a(g212
g710
tp1750
a(g38
g684
tp1751
a(g111
g24
tp1752
a(g49
g737
tp1753
a(g91
g15
tp1754
a(g634
g448
tp1755
a(g1277
S'LPAR6'
p1756
tp1757
a(g1073
g1307
tp1758
a(g295
g106
tp1759
a(g118
S'PRAMEF4'
p1760
tp1761
a(g1343
g1061
tp1762
a(S'FADS6'
p1763
g1408
tp1764
a(g517
g3
tp1765
a(g192
g1175
tp1766
a(g329
g70
tp1767
a(g329
g14
tp1768
a(g70
g101
tp1769
a(g1022
g332
tp1770
a(g174
g82
tp1771
a(g127
g132
tp1772
a(g680
g985
tp1773
a(g1271
S'NBPF12'
p1774
tp1775
a(g1244
g9
tp1776
a(g1375
g118
tp1777
a(g866
g313
tp1778
a(g255
g550
tp1779
a(g712
g88
tp1780
a(g155
g749
tp1781
a(g1603
g754
tp1782
a(g1146
g1293
tp1783
a(g747
g1460
tp1784
a(g329
g407
tp1785
a(S'RP1L1'
p1786
g1308
tp1787
a(g585
g511
tp1788
a(g92
g237
tp1789
a(g1303
g190
tp1790
a(g351
g651
tp1791
a(g105
g72
tp1792
a(g720
g775
tp1793
a(g196
g226
tp1794
a(g1078
g1693
tp1795
a(g1579
g208
tp1796
a(g1244
g114
tp1797
a(g1173
g366
tp1798
a(g933
g169
tp1799
a(g1061
g313
tp1800
a(g1207
g583
tp1801
a(g249
g399
tp1802
a(g526
S'PLXNB3'
p1803
tp1804
a(g1175
g193
tp1805
a(g565
g269
tp1806
a(g82
g212
tp1807
a(g108
g23
tp1808
a(g1398
g82
tp1809
a(g1346
g524
tp1810
a(g252
g665
tp1811
a(g630
g1367
tp1812
a(g274
g315
tp1813
a(g101
g92
tp1814
a(g193
g3
tp1815
a(g142
g1173
tp1816
a(g1154
g315
tp1817
a(g105
g1034
tp1818
a(g457
g92
tp1819
a(g1375
g813
tp1820
a(g8
g322
tp1821
a(g234
g502
tp1822
a(g469
g1165
tp1823
a(g441
g1182
tp1824
a(g85
g499
tp1825
a(g24
g109
tp1826
a(g488
g544
tp1827
a(g744
g196
tp1828
a(g1207
g54
tp1829
a(g414
g129
tp1830
a(g75
g225
tp1831
a(g694
S'ZNF845'
p1832
tp1833
a(g168
g580
tp1834
a(g5
g329
tp1835
a(g450
g329
tp1836
a(S'VNN3'
p1837
g1633
tp1838
a(g222
g120
tp1839
a(g150
g38
tp1840
a(g587
g52
tp1841
a(g511
g332
tp1842
a(g339
g883
tp1843
a(g144
g422
tp1844
a(g344
g403
tp1845
a(g280
g938
tp1846
a(g646
g183
tp1847
a(g5
g422
tp1848
a(g158
g283
tp1849
a(g477
g409
tp1850
a(g863
g278
tp1851
a(g700
S'MT-ND5'
p1852
tp1853
a(g1027
g27
tp1854
a(g1303
g318
tp1855
a(S'AGAP3'
p1856
g506
tp1857
a(g88
g971
tp1858
a(g1307
g1786
tp1859
a(g26
g1148
tp1860
a(g88
g411
tp1861
a(g253
g387
tp1862
a(g20
g109
tp1863
a(g1002
g296
tp1864
a(g436
g477
tp1865
a(g80
g101
tp1866
a(g237
g15
tp1867
a(g464
g262
tp1868
a(g902
g63
tp1869
a(g1318
S'SAMD1'
p1870
tp1871
a(S'FKSG68'
p1872
g281
tp1873
a(g1008
g11
tp1874
a(g35
g754
tp1875
a(S'APBB1IP'
p1876
g316
tp1877
a(g843
g1111
tp1878
a(g349
g797
tp1879
a(g419
g792
tp1880
a(g702
g232
tp1881
a(g161
g259
tp1882
a(g709
g213
tp1883
a(g436
g24
tp1884
a(g174
g680
tp1885
a(g561
g106
tp1886
a(g680
g213
tp1887
a(g354
g1061
tp1888
a(g634
g857
tp1889
a(g171
g283
tp1890
a(g709
g681
tp1891
a(g156
g124
tp1892
a(g902
g1232
tp1893
a(g354
g313
tp1894
a(g255
g481
tp1895
a(g218
g583
tp1896
a(g97
g15
tp1897
a(g438
g208
tp1898
a(g681
g710
tp1899
a(g823
g89
tp1900
a(g1398
g795
tp1901
a(g201
g692
tp1902
a(g52
g742
tp1903
a(g1316
g813
tp1904
a(g1046
g20
tp1905
a(g240
g70
tp1906
a(g1156
g481
tp1907
a(g895
g299
tp1908
a(g398
g843
tp1909
a(g149
g1148
tp1910
a(S'DUX4L4'
p1911
g506
tp1912
a(g2
g99
tp1913
a(g109
g409
tp1914
a(g767
g813
tp1915
a(g728
g715
tp1916
a(g517
g576
tp1917
a(g1253
g475
tp1918
a(g641
g238
tp1919
a(g571
g540
tp1920
a(g1027
g127
tp1921
a(g172
g226
tp1922
a(g280
g1876
tp1923
a(g763
g782
tp1924
a(S'LPAR6'
p1925
g156
tp1926
a(g345
g1137
tp1927
a(g277
g465
tp1928
a(S'IGHJ6'
p1929
g775
tp1930
a(g108
g20
tp1931
a(g174
g795
tp1932
a(g683
g803
tp1933
a(g585
g1034
tp1934
a(g35
g569
tp1935
a(g329
g97
tp1936
a(g519
g411
tp1937
a(g663
g64
tp1938
a(g111
g611
tp1939
a(g797
g448
tp1940
a(g248
g1111
tp1941
a(g54
g655
tp1942
a(g1086
g1313
tp1943
a(g987
g180
tp1944
a(g1091
g809
tp1945
a(S'FKSG68'
p1946
g1643
tp1947
a(g383
g524
tp1948
a(g1037
g475
tp1949
a(g351
g218
tp1950
a(g580
g264
tp1951
a(g252
g1357
tp1952
a(g342
g832
tp1953
a(g149
g1027
tp1954
a(g75
g692
tp1955
a(g225
g95
tp1956
a(g1086
g231
tp1957
a(g460
g536
tp1958
a(g546
g557
tp1959
a(g370
g407
tp1960
a(g953
g596
tp1961
a(g578
g334
tp1962
a(g477
g177
tp1963
a(g424
g483
tp1964
a(g1042
g1367
tp1965
a(g820
g1165
tp1966
a(g736
g684
tp1967
a(g192
g555
tp1968
a(g561
g470
tp1969
a(g134
g1063
tp1970
a(g1498
g499
tp1971
a(g415
g264
tp1972
a(g571
g740
tp1973
a(g196
g158
tp1974
a(g54
g193
tp1975
a(g149
g49
tp1976
a(g126
g736
tp1977
a(g698
g291
tp1978
a(g761
g24
tp1979
a(g129
g169
tp1980
a(g21
g460
tp1981
a(g163
g195
tp1982
a(g720
g605
tp1983
a(g144
g578
tp1984
a(g421
g240
tp1985
a(g1313
g1015
tp1986
a(g604
g345
tp1987
a(g1577
g1322
tp1988
a(g470
g1034
tp1989
a(g180
g564
tp1990
a(g1046
g177
tp1991
a(g1154
g281
tp1992
a(g275
g540
tp1993
a(g310
g92
tp1994
a(g111
g698
tp1995
a(g436
g698
tp1996
a(g192
g717
tp1997
a(g825
g863
tp1998
a(g692
g158
tp1999
a(S'PAEP'
p2000
g1199
tp2001
a(g24
g611
tp2002
a(g310
g144
tp2003
a(g35
g1677
tp2004
a(g571
g1872
tp2005
a(g1623
g1192
tp2006
a(g1343
g313
tp2007
a(g823
g971
tp2008
a(g341
g199
tp2009
a(g561
g296
tp2010
a(g8
g742
tp2011
a(g8
g807
tp2012
a(g1872
g740
tp2013
a(g1182
g373
tp2014
a(g149
g737
tp2015
a(g1046
g23
tp2016
a(g381
g44
tp2017
a(g20
g536
tp2018
a(g288
g299
tp2019
a(g72
g296
tp2020
a(g680
g175
tp2021
a(g1037
g1015
tp2022
a(g1046
g460
tp2023
a(g219
g717
tp2024
a(g641
g15
tp2025
a(g114
g1617
tp2026
a(g982
g702
tp2027
a(g427
g237
tp2028
a(g438
g860
tp2029
a(g322
g114
tp2030
a(g938
g315
tp2031
a(g172
g153
tp2032
a(g683
g103
tp2033
a(g351
g11
tp2034
a(g1346
g272
tp2035
a(S'AGAP3'
p2036
g29
tp2037
a(g766
g602
tp2038
a(g183
g647
tp2039
a(g843
g249
tp2040
a(g1219
g557
tp2041
a(g681
g83
tp2042
a(g651
g583
tp2043
a(g275
g1080
tp2044
a(g105
g820
tp2045
a(g651
g3
tp2046
a(g80
g14
tp2047
a(g425
g483
tp2048
a(g540
g1182
tp2049
a(g436
g611
tp2050
a(g69
g334
tp2051
a(g218
g193
tp2052
a(g1852
g618
tp2053
a(g1603
g919
tp2054
a(g288
g1381
tp2055
a(g9
g1617
tp2056
a(g848
g653
tp2057
a(g759
g485
tp2058
a(g686
g613
tp2059
a(g354
g865
tp2060
a(g41
g783
tp2061
a(g1253
g474
tp2062
a(g21
g112
tp2063
a(g1235
g49
tp2064
a(g316
g281
tp2065
a(g2036
g904
tp2066
a(g234
g503
tp2067
a(g271
g186
tp2068
a(g1346
g187
tp2069
a(g391
g782
tp2070
a(g1607
g499
tp2071
a(g587
g1617
tp2072
a(g580
g130
tp2073
a(S'RIMBP3'
p2074
g1837
tp2075
a(g869
g832
tp2076
a(g255
g204
tp2077
a(g908
g219
tp2078
a(g80
g334
tp2079
a(g681
g1011
tp2080
a(g587
g137
tp2081
a(g288
g1408
tp2082
a(g97
g407
tp2083
a(g427
g240
tp2084
a(g1042
g630
tp2085
a(g67
g529
tp2086
a(g744
g158
tp2087
a(g344
g775
tp2088
a(g1326
g124
tp2089
a(g651
g11
tp2090
a(g1929
g67
tp2091
a(g106
g331
tp2092
a(g662
g135
tp2093
a(g960
S'FKSG68'
p2094
tp2095
a(g289
g299
tp2096
a(g109
g1017
tp2097
a(g450
g534
tp2098
a(g187
g394
tp2099
a(S'DUX4L4'
p2100
S'LRRC48'
p2101
tp2102
a(g339
g869
tp2103
a(g1207
g3
tp2104
a(g291
g409
tp2105
a(g63
g1232
tp2106
a(g720
g67
tp2107
a(g1303
g1193
tp2108
a(g774
g344
tp2109
a(g752
g810
tp2110
a(S'AKAP4'
p2111
g1063
tp2112
a(g675
g991
tp2113
a(g166
g917
tp2114
a(g985
g795
tp2115
a(g1277
g1415
tp2116
a(g2
g583
tp2117
a(g1705
g286
tp2118
a(g595
g2000
tp2119
a(g1165
g1034
tp2120
a(g686
g1179
tp2121
a(g246
g216
tp2122
a(g465
g262
tp2123
a(g186
g384
tp2124
a(g5
g407
tp2125
a(g393
g1143
tp2126
a(g219
g11
tp2127
a(g126
g1148
tp2128
a(g908
g11
tp2129
a(g27
g684
tp2130
a(g651
g1175
tp2131
a(g417
g152
tp2132
a(g137
g807
tp2133
a(S'LPAR6'
p2134
g775
tp2135
a(g171
g158
tp2136
a(g442
g740
tp2137
a(g585
g72
tp2138
a(g534
g70
tp2139
a(g460
g291
tp2140
a(g1876
g571
tp2141
a(g1046
g21
tp2142
a(g336
g491
tp2143
a(g531
g319
tp2144
a(S'CENPI'
p2145
g223
tp2146
a(g228
g1677
tp2147
a(g1460
g524
tp2148
a(g322
g115
tp2149
a(g1089
g780
tp2150
a(g585
g106
tp2151
a(g1375
g1055
tp2152
a(g926
g1199
tp2153
a(g519
g607
tp2154
a(g522
g865
tp2155
a(g218
g2
tp2156
a(g351
g193
tp2157
a(g1156
g550
tp2158
a(g517
g994
tp2159
a(g1724
g394
tp2160
a(g792
g169
tp2161
a(g698
g109
tp2162
a(g35
g723
tp2163
a(g421
g14
tp2164
a(g1082
g438
tp2165
a(g2145
g706
tp2166
a(g5
g578
tp2167
a(g180
g565
tp2168
a(g272
g524
tp2169
a(g605
g345
tp2170
a(g20
g444
tp2171
a(g26
g38
tp2172
a(g393
g186
tp2173
a(S'GGT2'
p2174
g147
tp2175
a(g1570
g455
tp2176
a(g407
g15
tp2177
a(g424
g845
tp2178
a(S'TPPP'
p2179
g860
tp2180
a(g1343
g865
tp2181
a(g455
g1122
tp2182
a(g789
g334
tp2183
a(g869
g341
tp2184
a(g634
g262
tp2185
a(g919
g1677
tp2186
a(g1036
g474
tp2187
a(g1086
g703
tp2188
a(g1288
g828
tp2189
a(g1042
g639
tp2190
a(g499
g695
tp2191
a(g828
g130
tp2192
a(g1603
g35
tp2193
a(g444
g23
tp2194
a(g438
S'RP11-97O12.7'
p2195
tp2196
a(g55
g2
tp2197
a(g681
g139
tp2198
a(g1375
g602
tp2199
a(g2111
g64
tp2200
a(g307
g394
tp2201
a(g709
g680
tp2202
a(g865
g313
tp2203
a(g2145
g120
tp2204
a(g574
g33
tp2205
a(g1444
g147
tp2206
a(g436
g1017
tp2207
a(g919
g36
tp2208
a(g49
g1148
tp2209
a(g70
g97
tp2210
a(g174
g710
tp2211
a(g85
g1832
tp2212
a(g219
g2
tp2213
a(g281
g442
tp2214
a(g534
g578
tp2215
a(g427
g15
tp2216
a(g676
g991
tp2217
a(g372
g1182
tp2218
a(g479
g1533
tp2219
a(g625
g1533
tp2220
a(g168
g414
tp2221
a(g1115
g33
tp2222
a(g1393
g991
tp2223
a(g555
g994
tp2224
a(g2174
g1444
tp2225
a(g174
g799
tp2226
a(g8
g137
tp2227
a(g1059
g534
tp2228
a(g1524
g607
tp2229
a(g417
g75
tp2230
a(g742
g1617
tp2231
a(g601
g673
tp2232
a(g12
g994
tp2233
a(g515
g121
tp2234
a(g1089
g216
tp2235
a(g101
g422
tp2236
a(g1524
g653
tp2237
a(g378
g706
tp2238
a(g662
g64
tp2239
a(g1207
g576
tp2240
a(g427
g669
tp2241
a(g261
g465
tp2242
a(g218
g11
tp2243
a(g201
g778
tp2244
a(g192
g583
tp2245
a(g195
g152
tp2246
a(g27
g1148
tp2247
a(g513
g283
tp2248
a(g43
g386
tp2249
a(g710
g1011
tp2250
a(g80
g238
tp2251
a(g561
g472
tp2252
a(g759
g1870
tp2253
a(g444
g477
tp2254
a(g23
g611
tp2255
a(g1377
g123
tp2256
a(g23
g291
tp2257
a(g5
g97
tp2258
a(g692
g778
tp2259
a(g517
g11
tp2260
a(g517
g99
tp2261
a(g472
g332
tp2262
a(g580
g792
tp2263
a(g17
g557
tp2264
a(g694
g922
tp2265
a(g414
g792
tp2266
a(g175
g710
tp2267
a(g978
g843
tp2268
a(g902
g662
tp2269
a(g215
g1089
tp2270
a(g240
g92
tp2271
a(g1607
g1832
tp2272
a(g1326
g845
tp2273
a(g222
g515
tp2274
a(g446
g249
tp2275
a(g474
g1015
tp2276
a(g5
g789
tp2277
a(g1460
g307
tp2278
a(g789
g15
tp2279
a(g778
g95
tp2280
a(g106
g1034
tp2281
a(g730
g455
tp2282
a(g667
g692
tp2283
a(g351
g3
tp2284
a(g1036
g1015
tp2285
a(g134
g46
tp2286
a(g429
g1322
tp2287
a(g1929
g345
tp2288
a(g464
g348
tp2289
a(g527
g1803
tp2290
a(g78
g737
tp2291
a(g641
g578
tp2292
a(g1059
g578
tp2293
a(g105
g470
tp2294
a(g258
g366
tp2295
a(g1270
g1774
tp2296
a(g795
g1355
tp2297
a(g414
g467
tp2298
a(g348
g448
tp2299
a(g695
g715
tp2300
a(g193
g99
tp2301
a(g857
g448
tp2302
a(g55
g717
tp2303
a(g51
g1244
tp2304
a(g370
g669
tp2305
a(g1063
g64
tp2306
a(g225
g172
tp2307
a(g605
g67
tp2308
a(g38
g132
tp2309
a(g91
g101
tp2310
a(g101
g15
tp2311
a(g64
g47
tp2312
a(g298
g288
tp2313
a(g585
g470
tp2314
a(g111
g1017
tp2315
a(g1011
g139
tp2316
a(g604
g403
tp2317
a(S'GPR18'
p2318
S'LPAR6'
p2319
tp2320
a(g158
g172
tp2321
a(g624
g246
tp2322
a(g2318
S'INTS4L2'
p2323
tp2324
a(g2111
g662
tp2325
a(g249
g1111
tp2326
a(g751
g810
tp2327
a(g1463
g1577
tp2328
a(g141
g366
tp2329
a(g797
g465
tp2330
a(g2101
S'RP11-368I7.4'
p2331
tp2332
a(g1253
g702
tp2333
a(g641
g407
tp2334
a(g327
g259
tp2335
a(g1524
g89
tp2336
a(g430
g1577
tp2337
a(g641
g70
tp2338
a(g149
g684
tp2339
a(g519
g357
tp2340
a(g519
g653
tp2341
a(g103
g127
tp2342
a(g789
g407
tp2343
a(g694
g499
tp2344
a(g1381
g299
tp2345
a(g446
g1403
tp2346
a(g1207
g1175
tp2347
a(g978
g1111
tp2348
a(g763
g41
tp2349
a(g853
g1137
tp2350
a(g372
g740
tp2351
a(g196
g283
tp2352
a(g837
g216
tp2353
a(g218
g717
tp2354
a(g1760
g673
tp2355
a(g686
g43
tp2356
a(g444
g536
tp2357
a(g193
g583
tp2358
a(g519
g356
tp2359
a(g567
g706
tp2360
a(g111
g761
tp2361
a(g1029
g797
tp2362
a(g585
g1002
tp2363
a(g57
g1518
tp2364
a(g825
g857
tp2365
a(g450
g669
tp2366
a(g103
g736
tp2367
a(g82
g799
tp2368
a(g415
g792
tp2369
a(g348
g278
tp2370
a(g94
g171
tp2371
a(g258
g1173
tp2372
a(g710
g139
tp2373
a(g57
S'LPAR6'
p2374
tp2375
a(g14
g238
tp2376
a(g3
g717
tp2377
a(g1346
g393
tp2378
a(g307
g609
tp2379
a(g2111
g134
tp2380
a(g2
g576
tp2381
a(g1078
g58
tp2382
a(g310
g422
tp2383
a(g228
g36
tp2384
a(g1688
S'MT-CYB'
p2385
tp2386
a(g351
g717
tp2387
a(g457
g15
tp2388
a(g1876
g441
tp2389
a(g680
g83
tp2390
a(g904
S'hsa-mir-6080'
p2391
tp2392
a(g378
g293
tp2393
a(g112
g536
tp2394
a(g219
g3
tp2395
a(g27
g127
tp2396
a(g709
g83
tp2397
a(g926
g911
tp2398
a(g2000
g953
tp2399
a(g509
g922
tp2400
a(g275
g372
tp2401
a(g424
g156
tp2402
a(g857
g278
tp2403
a(g149
g38
tp2404
a(g908
g651
tp2405
a(g2318
S'RP11-97O12.7'
p2406
tp2407
a(g1389
g302
tp2408
a(g441
g740
tp2409
a(g106
g820
tp2410
a(g474
g702
tp2411
a(g75
g153
tp2412
a(g174
g709
tp2413
a(g1375
g767
tp2414
a(g141
g259
tp2415
a(g319
g1193
tp2416
a(g1002
g73
tp2417
a(g692
g283
tp2418
a(g841
g524
tp2419
a(g310
g421
tp2420
a(g855
g720
tp2421
a(g1460
g308
tp2422
a(g1460
g272
tp2423
a(g212
g139
tp2424
a(g66
g529
tp2425
a(g922
g86
tp2426
a(g736
g49
tp2427
a(g534
g370
tp2428
a(g744
g201
tp2429
a(g820
g470
tp2430
a(g1029
g278
tp2431
a(g1677
g723
tp2432
a(g855
g67
tp2433
a(g1154
g740
tp2434
a(S'AGAP3'
p2435
g1643
tp2436
a(g710
g1355
tp2437
a(g683
g49
tp2438
a(g82
g985
tp2439
a(g1027
g103
tp2440
a(g669
g237
tp2441
a(g754
g36
tp2442
a(g747
g187
tp2443
a(g820
g1002
tp2444
a(g2145
g688
tp2445
a(g1061
g866
tp2446
a(g1098
g1061
tp2447
a(g120
g223
tp2448
a(g280
g441
tp2449
a(g334
g97
tp2450
a(g295
g470
tp2451
a(g669
g238
tp2452
a(g57
g1078
tp2453
a(g1414
g1756
tp2454
a(g12
g3
tp2455
a(g1623
g318
tp2456
a(g837
g246
tp2457
a(g2331
S'ZNF571'
p2458
tp2459
a(g571
g441
tp2460
a(g23
g109
tp2461
a(g1288
g580
tp2462
a(g91
g421
tp2463
a(g651
g576
tp2464
a(g261
g857
tp2465
a(g424
g155
tp2466
a(g69
g92
tp2467
a(g106
g332
tp2468
a(g183
g1115
tp2469
a(g193
g576
tp2470
a(g758
g485
tp2471
a(g327
g769
tp2472
a(g215
g625
tp2473
a(g641
g69
tp2474
a(g126
g684
tp2475
a(g55
g994
tp2476
a(g1763
g1381
tp2477
a(g617
g1122
tp2478
a(g761
g1017
tp2479
a(g1763
g895
tp2480
a(g446
g843
tp2481
a(g1623
g532
tp2482
a(g304
g544
tp2483
a(g111
g20
tp2484
a(g427
g578
tp2485
a(g744
g94
tp2486
a(g990
g285
tp2487
a(g75
g196
tp2488
a(g1346
g394
tp2489
a(g421
g406
tp2490
a(g436
g536
tp2491
a(g438
g935
tp2492
a(g75
g226
tp2493
a(g424
g1326
tp2494
a(g5
g334
tp2495
a(g1002
g1165
tp2496
a(g1398
g709
tp2497
a(g174
g1398
tp2498
a(g421
g92
tp2499
a(g277
g857
tp2500
a(g310
g370
tp2501
a(g127
g38
tp2502
a(g1946
g702
tp2503
a(g641
g406
tp2504
a(g174
g213
tp2505
a(g225
g778
tp2506
a(g407
g14
tp2507
a(g353
g313
tp2508
a(g163
g667
tp2509
a(g1332
g199
tp2510
a(g452
g411
tp2511
a(g1375
g1760
tp2512
a(g669
g407
tp2513
a(g1207
g55
tp2514
a(g1059
g92
tp2515
a(g1036
g1946
tp2516
a(g598
g725
tp2517
a(g1022
g106
tp2518
a(g919
g35
tp2519
a(g1086
g1946
tp2520
a(g2318
S'TPPP'
p2521
tp2522
a(g1563
g29
tp2523
a(g1688
g2323
tp2524
a(g688
g515
tp2525
a(g681
g1355
tp2526
a(g560
g72
tp2527
a(g497
g366
tp2528
a(g89
g607
tp2529
a(g433
g325
tp2530
a(g1078
g41
tp2531
a(g52
g323
tp2532
a(g427
g334
tp2533
a(g1498
g715
tp2534
a(g751
S'LPAR6'
p2535
tp2536
a(g139
g83
tp2537
a(g1328
g67
tp2538
a(g560
g472
tp2539
a(g782
g2374
tp2540
a(g61
g971
tp2541
a(g926
g2000
tp2542
a(g686
g253
tp2543
a(g1029
g465
tp2544
a(g91
g329
tp2545
a(g394
g384
tp2546
a(g1036
g1253
tp2547
a(g513
g95
tp2548
a(g1059
g329
tp2549
a(g88
g357
tp2550
a(g26
g737
tp2551
a(g21
g1017
tp2552
a(g2111
g47
tp2553
a(g1444
g1505
tp2554
a(g1332
g341
tp2555
a(g869
g198
tp2556
a(g698
g177
tp2557
a(g698
g409
tp2558
a(g982
g1643
tp2559
a(g150
g27
tp2560
a(g853
g67
tp2561
a(g117
g1316
tp2562
a(g1063
g1232
tp2563
a(g807
g323
tp2564
a(g662
g47
tp2565
a(g212
g83
tp2566
a(g398
g1111
tp2567
a(g744
g225
tp2568
a(g280
g1080
tp2569
a(g190
g532
tp2570
a(g550
g376
tp2571
a(g454
g1852
tp2572
a(g69
g14
tp2573
a(g310
g534
tp2574
a(g455
g618
tp2575
a(g75
g158
tp2576
a(g511
g296
tp2577
a(g2145
g121
tp2578
a(g255
g203
tp2579
a(g536
g177
tp2580
a(g152
g196
tp2581
a(g274
g280
tp2582
a(g803
g736
tp2583
a(g111
g109
tp2584
a(g137
g323
tp2585
a(g393
g524
tp2586
a(g331
g470
tp2587
a(g424
g124
tp2588
a(g126
g103
tp2589
a(g80
g97
tp2590
a(g35
g228
tp2591
a(g457
g14
tp2592
a(g370
g422
tp2593
a(g1059
g14
tp2594
a(g744
g153
tp2595
a(g571
g373
tp2596
a(g103
g684
tp2597
a(g1643
g232
tp2598
a(g675
g1705
tp2599
a(g494
g503
tp2600
a(g1414
g1278
tp2601
a(g57
g1693
tp2602
a(g336
g492
tp2603
a(g315
g1872
tp2604
a(g1244
g807
tp2605
a(g8
g115
tp2606
a(g675
g1393
tp2607
a(g2435
g702
tp2608
a(g334
g15
tp2609
a(g26
g803
tp2610
a(g89
g971
tp2611
a(g587
g9
tp2612
a(g641
g101
tp2613
a(g94
g201
tp2614
a(g111
g1046
tp2615
a(g310
g15
tp2616
a(g5
g144
tp2617
a(g825
g261
tp2618
a(g1346
g186
tp2619
a(g2000
g596
tp2620
a(g655
g583
tp2621
a(g54
g12
tp2622
a(g225
g196
tp2623
a(g686
g996
tp2624
a(g1518
g58
tp2625
a(g310
g407
tp2626
a(g472
g72
tp2627
a(g20
g611
tp2628
a(g908
g3
tp2629
a(g64
g135
tp2630
a(g617
g1852
tp2631
a(g419
g933
tp2632
a(g92
g15
tp2633
a(g1080
g373
tp2634
a(g163
g283
tp2635
a(g80
g240
tp2636
a(g223
g293
tp2637
a(g803
g132
tp2638
a(g169
g130
tp2639
a(g513
g225
tp2640
a(g414
g169
tp2641
a(g275
g1872
tp2642
a(g91
g407
tp2643
a(g123
g749
tp2644
a(g61
g823
tp2645
a(g841
g1460
tp2646
a(g1346
g1460
tp2647
a(g1059
g5
tp2648
a(g80
g534
tp2649
a(g441
g372
tp2650
a(g406
g789
tp2651
a(g527
g267
tp2652
a(g249
g1403
tp2653
a(g982
g1015
tp2654
a(g421
g6
tp2655
a(g441
g316
tp2656
a(g60
g411
tp2657
a(g908
g193
tp2658
a(g225
g667
tp2659
a(g565
g949
tp2660
a(g156
g425
tp2661
a(g216
g1533
tp2662
a(g751
g809
tp2663
a(g1207
g218
tp2664
a(g580
g933
tp2665
a(g576
g99
tp2666
a(g421
g97
tp2667
a(g222
g2145
tp2668
a(g1165
g73
tp2669
a(g1403
g1111
tp2670
a(g647
g574
tp2671
a(g1244
g115
tp2672
a(g624
g245
tp2673
a(g366
g259
tp2674
a(g106
g1002
tp2675
a(g1059
g70
tp2676
a(g477
g291
tp2677
a(g641
g370
tp2678
a(g761
g20
tp2679
a(g683
g1027
tp2680
a(g75
g778
tp2681
a(S'AGAP3'
p2682
g1073
tp2683
a(g322
g1617
tp2684
a(g758
g486
tp2685
a(g472
g106
tp2686
a(g1046
g698
tp2687
a(g669
g6
tp2688
a(g486
g1870
tp2689
a(g201
g226
tp2690
a(g322
g137
tp2691
a(g18
g1219
tp2692
a(g52
g114
tp2693
a(g709
g175
tp2694
a(g298
g1408
tp2695
a(g511
g72
tp2696
a(g1207
g219
tp2697
a(g414
g828
tp2698
a(g417
g196
tp2699
a(g1748
g782
tp2700
a(g36
g723
tp2701
a(g139
g213
tp2702
a(g1377
g1326
tp2703
a(g744
g692
tp2704
a(g519
g1524
tp2705
a(g1303
g319
tp2706
a(g667
g95
tp2707
a(g446
g399
tp2708
a(g709
g985
tp2709
a(g1063
g46
tp2710
a(g137
g742
tp2711
a(g152
g172
tp2712
a(g433
g289
tp2713
a(g659
g256
tp2714
a(g624
g479
tp2715
a(g825
g277
tp2716
a(g946
g845
tp2717
a(g329
g92
tp2718
a(g1192
g318
tp2719
a(g694
g86
tp2720
a(S'APBB1IP'
p2721
g2100
tp2722
a(g54
g717
tp2723
a(g865
g312
tp2724
a(g747
g186
tp2725
a(g444
g24
tp2726
a(g195
g201
tp2727
a(g720
g2134
tp2728
a(g513
g153
tp2729
a(g1063
g47
tp2730
a(g792
g933
tp2731
a(g825
g278
tp2732
a(g101
g97
tp2733
a(g611
g177
tp2734
a(g91
g14
tp2735
a(g295
g472
tp2736
a(g21
g698
tp2737
a(g2374
g41
tp2738
a(g103
g1235
tp2739
a(g792
g467
tp2740
a(g706
g515
tp2741
a(g1078
g1518
tp2742
a(g61
g848
tp2743
a(g334
g407
tp2744
a(g1098
g313
tp2745
a(g1027
g49
tp2746
a(g1872
g373
tp2747
a(g978
g248
tp2748
a(g1046
g444
tp2749
a(g571
g1080
tp2750
a(g1623
g190
tp2751
a(g88
g607
tp2752
a(g1008
g583
tp2753
a(g1154
g280
tp2754
a(g117
g602
tp2755
a(g450
g240
tp2756
a(g240
g97
tp2757
a(g587
g115
tp2758
a(g472
g296
tp2759
a(g1498
g1832
tp2760
a(g681
g799
tp2761
a(g149
g78
tp2762
a(g1303
g1192
tp2763
a(g1022
g72
tp2764
a(g1073
S'RP11-97O12.7'
p2765
tp2766
a(g406
g238
tp2767
a(g15
g422
tp2768
a(g865
g1146
tp2769
a(g18
g557
tp2770
a(g208
g2195
tp2771
a(g1318
g758
tp2772
a(g544
g489
tp2773
a(g1207
g193
tp2774
a(g609
g394
tp2775
a(g971
g653
tp2776
a(g2000
g911
tp2777
a(g78
g126
tp2778
a(g316
g572
tp2779
a(g69
g407
tp2780
a(g651
g218
tp2781
a(g1876
g1182
tp2782
a(g1716
g180
tp2783
a(g174
g985
tp2784
a(g848
g607
tp2785
a(g1414
g361
tp2786
a(g69
g422
tp2787
a(g686
g387
tp2788
a(g215
g837
tp2789
a(g183
g1084
tp2790
a(g66
g403
tp2791
a(g231
g1015
tp2792
a(g380
g43
tp2793
a(g275
g442
tp2794
a(g1089
g625
tp2795
a(g91
g669
tp2796
a(g1061
g1293
tp2797
a(g465
g448
tp2798
a(g1852
g931
tp2799
a(g1059
g237
tp2800
a(g123
g483
tp2801
a(g144
g92
tp2802
a(g565
g181
tp2803
a(g710
g795
tp2804
a(g203
g481
tp2805
a(g571
g281
tp2806
a(g228
g755
tp2807
a(g1063
g363
tp2808
a(g686
g381
tp2809
a(g187
g1143
tp2810
a(g931
g1122
tp2811
a(g987
g950
tp2812
a(g310
g69
tp2813
a(g1173
g769
tp2814
a(g1156
g256
tp2815
a(g378
g223
tp2816
a(g807
g9
tp2817
a(g163
g95
tp2818
a(g1175
g994
tp2819
a(g168
g130
tp2820
a(g111
g436
tp2821
a(g655
g2
tp2822
a(g82
g795
tp2823
a(g427
g422
tp2824
a(g797
g634
tp2825
a(g680
g710
tp2826
a(g681
g213
tp2827
a(g683
g127
tp2828
a(g605
g529
tp2829
a(S'ASPN'
p2830
g2331
tp2831
a(g67
g404
tp2832
a(g261
g464
tp2833
a(g192
g576
tp2834
a(g398
g1403
tp2835
a(g6
g407
tp2836
a(g659
g1156
tp2837
a(g76
g153
tp2838
a(g578
g101
tp2839
a(g828
g169
tp2840
a(g171
g95
tp2841
a(g373
g572
tp2842
a(g1632
g2074
tp2843
a(g196
g778
tp2844
a(g703
g475
tp2845
a(g1326
g749
tp2846
a(g669
g15
tp2847
a(g780
g1533
tp2848
a(g78
g736
tp2849
a(g277
g863
tp2850
a(g91
g240
tp2851
a(g8
g51
tp2852
a(g774
g66
tp2853
a(g66
g775
tp2854
a(g111
g108
tp2855
a(g946
g155
tp2856
a(g83
g1355
tp2857
a(g108
g698
tp2858
a(g429
g1463
tp2859
a(g2100
S'FKSG68'
p2860
tp2861
a(g436
g177
tp2862
a(g1381
g289
tp2863
a(g165
S'USP17L10'
p2864
tp2865
a(g1876
g281
tp2866
a(g275
g373
tp2867
a(g477
g109
tp2868
a(g1876
g740
tp2869
a(g667
g158
tp2870
a(g617
g931
tp2871
a(g344
g605
tp2872
a(g1202
g384
tp2873
a(g186
g308
tp2874
a(g208
g1263
tp2875
a(g1059
g669
tp2876
a(g605
g404
tp2877
a(g11
g717
tp2878
a(g1235
g737
tp2879
a(g659
g550
tp2880
a(g2318
g2385
tp2881
a(g258
g160
tp2882
a(S'AC009060.1'
p2883
g353
tp2884
a(g774
g720
tp2885
a(g286
S'TPPP'
p2886
tp2887
a(g1288
g419
tp2888
a(g444
g409
tp2889
a(g231
g1643
tp2890
a(g24
g177
tp2891
a(g613
g387
tp2892
a(g513
g171
tp2893
a(g470
g332
tp2894
a(g24
g409
tp2895
a(g688
g223
tp2896
a(g298
g1763
tp2897
a(g280
g572
tp2898
a(g349
g278
tp2899
a(g444
g611
tp2900
a(g1108
g631
tp2901
a(g560
g1002
tp2902
a(g295
g72
tp2903
a(g2435
g1086
tp2904
a(g1925
g483
tp2905
a(g73
g332
tp2906
a(g1207
g717
tp2907
a(g315
g572
tp2908
a(g873
g235
tp2909
a(g378
g121
tp2910
a(g692
g95
tp2911
a(g624
g216
tp2912
a(g409
g177
tp2913
a(g1040
g1161
tp2914
a(g712
g607
tp2915
a(g709
g82
tp2916
a(g281
g572
tp2917
a(g2111
g663
tp2918
a(g64
g1232
tp2919
a(g1244
g1617
tp2920
a(g1460
g187
tp2921
a(g1288
g414
tp2922
a(g782
g1518
tp2923
a(g2830
g2100
tp2924
a(g2435
g475
tp2925
a(g990
g675
tp2926
a(g150
g127
tp2927
a(g820
g72
tp2928
a(g177
g1017
tp2929
a(g813
g673
tp2930
a(g576
g717
tp2931
a(g511
g105
tp2932
a(g1870
S'SLC9B1P1'
p2933
tp2934
a(g1524
g61
tp2935
a(g438
g1579
tp2936
a(g370
g421
tp2937
a(g1029
g634
tp2938
a(g315
g740
tp2939
a(g150
g49
tp2940
a(g421
g144
tp2941
a(g1175
g576
tp2942
a(g647
g32
tp2943
a(g258
g497
tp2944
a(g318
g189
tp2945
a(g394
g524
tp2946
a(g240
g789
tp2947
a(g825
g262
tp2948
a(g316
g1872
tp2949
a(g692
g76
tp2950
a(g186
g524
tp2951
a(g18
g1803
tp2952
a(g450
g92
tp2953
a(g457
g422
tp2954
a(g222
g121
tp2955
a(g101
g334
tp2956
a(g1073
S'IGHJ6'
p2957
tp2958
a(g23
g409
tp2959
a(g869
g342
tp2960
a(g1098
g865
tp2961
a(g393
g187
tp2962
a(g1046
g761
tp2963
a(g111
g536
tp2964
a(g946
g1925
tp2965
a(g686
g252
tp2966
a(g2883
g1061
tp2967
a(g1084
g33
tp2968
a(g919
g754
tp2969
a(g513
g201
tp2970
a(g2883
g313
tp2971
a(g470
g1002
tp2972
a(g869
g883
tp2973
a(g27
g736
tp2974
a(g1375
g673
tp2975
a(g1055
g813
tp2976
a(g417
g226
tp2977
a(g1576
g429
tp2978
a(g809
g1188
tp2979
a(g1724
g524
tp2980
a(g228
g569
tp2981
a(g201
g158
tp2982
a(g43
g613
tp2983
a(g1332
g869
tp2984
a(g797
g863
tp2985
a(g1042
g638
tp2986
a(g80
g406
tp2987
a(g163
g158
tp2988
a(g70
g15
tp2989
a(g499
g1832
tp2990
a(g310
g101
tp2991
a(g712
g411
tp2992
a(g1603
g723
tp2993
a(g429
g1577
tp2994
a(g675
g286
tp2995
a(g464
g797
tp2996
a(g688
g706
tp2997
a(g509
g86
tp2998
a(g274
g441
tp2999
a(g242
g368
tp3000
a(g115
g1617
tp3001
a(S'LPAR6'
p3002
g506
tp3003
a(g1303
g189
tp3004
a(g78
g803
tp3005
a(g841
g187
tp3006
a(g280
g740
tp3007
a(g1403
g401
tp3008
a(g57
g783
tp3009
a(g424
g749
tp3010
a(g1607
g715
tp3011
a(g761
g477
tp3012
a(g108
g477
tp3013
a(g89
g653
tp3014
a(g585
g1165
tp3015
a(g403
g529
tp3016
a(g1398
g213
tp3017
a(g561
g72
tp3018
a(g1059
g101
tp3019
a(S'LPAR6'
p3020
g235
tp3021
a(g146
g2174
tp3022
a(g421
g334
tp3023
a(g744
g778
tp3024
a(g1192
g190
tp3025
a(g415
g130
tp3026
a(g47
g363
tp3027
a(g153
g226
tp3028
a(g761
g109
tp3029
a(g47
g1232
tp3030
a(g57
g965
tp3031
a(g51
g322
tp3032
a(g78
g1148
tp3033
a(g20
g291
tp3034
a(g698
g1017
tp3035
a(g1146
g312
tp3036
a(g370
g334
tp3037
a(g174
g681
tp3038
a(g744
g226
tp3039
a(g80
g6
tp3040
a(g54
g576
tp3041
a(g318
g1193
tp3042
a(g694
g85
tp3043
a(g419
g580
tp3044
a(g511
g1034
tp3045
a(g1760
g602
tp3046
a(g75
g667
tp3047
a(g5
g14
tp3048
a(g123
g156
tp3049
a(g2883
g865
tp3050
a(g761
g460
tp3051
a(g1872
g372
tp3052
a(g174
g212
tp3053
a(g1061
g312
tp3054
a(g20
g477
tp3055
a(g35
g229
tp3056
a(g534
g144
tp3057
a(g754
g723
tp3058
a(g23
g21
tp3059
a(g1156
g204
tp3060
a(g168
g828
tp3061
a(g587
g807
tp3062
a(g315
g1182
tp3063
a(g444
g112
tp3064
a(g195
g172
tp3065
a(g1008
g2
tp3066
a(g441
g540
tp3067
a(g376
g256
tp3068
a(g150
g1148
tp3069
a(g218
g994
tp3070
a(g63
g663
tp3071
a(g63
g363
tp3072
a(g778
g153
tp3073
a(g546
g1803
tp3074
a(g1389
g503
tp3075
a(g843
g399
tp3076
a(g513
g75
tp3077
a(g421
g238
tp3078
a(g1925
g124
tp3079
a(g601
g1760
tp3080
a(g436
g109
tp3081
a(g1008
g3
tp3082
a(g1288
g933
tp3083
a(g51
g115
tp3084
a(g422
g238
tp3085
a(g509
g1832
tp3086
a(g55
g99
tp3087
a(g427
g406
tp3088
a(g219
g55
tp3089
a(g472
g73
tp3090
a(g274
g740
tp3091
a(g1688
g2318
tp3092
a(g85
g922
tp3093
a(g163
g778
tp3094
a(g106
g296
tp3095
a(g381
g996
tp3096
a(g393
g1202
tp3097
a(g91
g237
tp3098
a(g1716
g565
tp3099
a(g129
g467
tp3100
a(g1253
g1946
tp3101
a(g274
g316
tp3102
a(g38
g49
tp3103
a(g417
g172
tp3104
a(g94
g692
tp3105
a(g853
g345
tp3106
a(g274
g540
tp3107
a(g513
g226
tp3108
a(g95
g283
tp3109
a(g820
g296
tp3110
a(g761
g536
tp3111
a(g106
g1165
tp3112
a(g424
g1925
tp3113
a(g406
g15
tp3114
a(g218
g3
tp3115
a(g401
g1111
tp3116
a(g1398
g139
tp3117
a(g274
g572
tp3118
a(g1182
g740
tp3119
a(g853
g605
tp3120
a(g560
g1022
tp3121
a(g990
g286
tp3122
a(g908
g192
tp3123
a(g85
g715
tp3124
a(g1202
g187
tp3125
a(g859
g208
tp3126
a(g933
g828
tp3127
a(g43
g1179
tp3128
a(g589
g305
tp3129
a(g522
g312
tp3130
a(g295
g1002
tp3131
a(g922
g695
tp3132
a(g409
g536
tp3133
a(g149
g127
tp3134
a(g1576
g1463
tp3135
a(g421
g15
tp3136
a(g946
g425
tp3137
a(g271
g1460
tp3138
a(g1199
g911
tp3139
a(g938
g441
tp3140
a(g228
g754
tp3141
a(S'FRMPD2'
p3142
g917
tp3143
a(g91
g334
tp3144
a(g638
g1367
tp3145
a(g1277
g361
tp3146
a(g105
g1002
tp3147
a(g255
g376
tp3148
a(g41
g1693
tp3149
a(g1336
g29
tp3150
a(g837
g479
tp3151
a(g149
g26
tp3152
a(g469
g332
tp3153
a(g240
g578
tp3154
a(S'AC138393.1'
p3155
S'TPPP'
p3156
tp3157
a(g651
g192
tp3158
a(g351
g99
tp3159
a(g264
g130
tp3160
a(g393
g1724
tp3161
a(g1027
g803
tp3162
a(g865
g1293
tp3163
a(g248
g398
tp3164
a(g101
g237
tp3165
a(g186
g394
tp3166
a(g80
g641
tp3167
a(g2145
g567
tp3168
a(g112
g109
tp3169
a(g1046
g291
tp3170
a(g1381
g434
tp3171
a(g1154
g373
tp3172
a(g595
g926
tp3173
a(g353
g865
tp3174
a(g1059
g97
tp3175
a(g126
g1235
tp3176
a(g353
g312
tp3177
a(g494
g301
tp3178
a(g1607
g922
tp3179
a(g774
g605
tp3180
a(g161
g366
tp3181
a(g908
g994
tp3182
a(g1175
g3
tp3183
a(g307
g524
tp3184
a(g11
g583
tp3185
a(g1008
g517
tp3186
a(g464
g448
tp3187
a(g450
g97
tp3188
a(g417
g171
tp3189
a(g1207
g192
tp3190
a(g837
g780
tp3191
a(g258
g769
tp3192
a(g411
g848
tp3193
a(g571
g442
tp3194
a(g460
g112
tp3195
a(g187
g384
tp3196
a(g351
g219
tp3197
a(g1011
g213
tp3198
a(g192
g2
tp3199
a(g150
g126
tp3200
a(g683
g27
tp3201
a(g825
g464
tp3202
a(g555
g2
tp3203
a(g417
g201
tp3204
a(g1271
S'RIMBP3'
p3205
tp3206
a(g152
g158
tp3207
a(g534
g669
tp3208
a(g231
g1037
tp3209
a(g651
g994
tp3210
a(g1008
g651
tp3211
a(g354
g1293
tp3212
a(g1202
g307
tp3213
a(g702
g1037
tp3214
a(g2111
g363
tp3215
a(g485
g1870
tp3216
a(g1086
g232
tp3217
a(g351
g192
tp3218
a(g225
g76
tp3219
a(g118
g766
tp3220
a(g345
g403
tp3221
a(g123
g1326
tp3222
a(g869
g243
tp3223
a(g1346
g307
tp3224
a(g611
g1017
tp3225
a(g407
g238
tp3226
a(g419
g129
tp3227
a(g280
g275
tp3228
a(g2535
g810
tp3229
a(g1415
g1278
tp3230
a(g149
g132
tp3231
a(g1161
g565
tp3232
a(g123
g425
tp3233
a(S'LPAR6'
p3234
g286
tp3235
a(g494
g502
tp3236
a(g736
g1235
tp3237
a(g895
g289
tp3238
a(g1059
g6
tp3239
a(g1876
g275
tp3240
a(g710
g213
tp3241
a(g561
g1002
tp3242
a(g383
g307
tp3243
a(g531
g190
tp3244
a(g763
g1518
tp3245
a(g150
g737
tp3246
a(g1288
g169
tp3247
a(g902
g46
tp3248
a(g323
g1617
tp3249
a(g450
g14
tp3250
a(g758
g1870
tp3251
a(g5
g237
tp3252
a(g1346
g308
tp3253
a(g524
g308
tp3254
a(g427
g101
tp3255
a(g51
g807
tp3256
a(g789
g14
tp3257
a(g66
g1137
tp3258
a(g94
g158
tp3259
a(g436
g291
tp3260
a(g706
g121
tp3261
a(g69
g789
tp3262
a(g5
g406
tp3263
a(g80
g310
tp3264
a(g158
g153
tp3265
a(g578
g14
tp3266
a(g1098
g312
tp3267
a(g99
g583
tp3268
a(g1089
g246
tp3269
a(g1232
g135
tp3270
a(g1303
g531
tp3271
a(g1313
g1643
tp3272
a(g442
g373
tp3273
a(g261
g1029
tp3274
a(g213
g1355
tp3275
a(g54
g994
tp3276
a(g351
g994
tp3277
a(g1022
g470
tp3278
a(g274
g1872
tp3279
a(g406
g422
tp3280
a(g212
g795
tp3281
a(g222
g706
tp3282
a(g1244
g137
tp3283
a(g775
g403
tp3284
a(g366
g769
tp3285
a(g2074
g1633
tp3286
a(g23
g698
tp3287
a(g134
g47
tp3288
a(g1498
g922
tp3289
a(g344
g2134
tp3290
a(g101
g14
tp3291
a(g1055
g602
tp3292
a(g499
g715
tp3293
a(g89
g356
tp3294
a(g80
g329
tp3295
a(g825
g1029
tp3296
a(g922
g1832
tp3297
a(g803
g127
tp3298
a(g1632
g1837
tp3299
a(g464
g1029
tp3300
a(g242
g341
tp3301
a(g863
g465
tp3302
a(g280
g316
tp3303
a(g253
g381
tp3304
a(g728
g1832
tp3305
a(g1207
g11
tp3306
a(g421
g70
tp3307
a(g803
g684
tp3308
a(g344
g404
tp3309
a(g747
g384
tp3310
a(g1046
g108
tp3311
a(g1193
g532
tp3312
a(g825
g348
tp3313
a(g344
g1929
tp3314
a(g1086
g1037
tp3315
a(g2
g717
tp3316
a(g123
g1925
tp3317
a(g946
g1326
tp3318
a(g288
g895
tp3319
a(g441
g1872
tp3320
a(g51
g323
tp3321
a(g761
g444
tp3322
a(g139
g1355
tp3323
a(g517
g583
tp3324
a(g513
g163
tp3325
a(g40
g1078
tp3326
a(g280
g1872
tp3327
a(g201
g196
tp3328
a(g1027
g38
tp3329
a(g329
g69
tp3330
a(g272
g384
tp3331
a(S'TAS2R43'
p3332
g1308
tp3333
a(g195
g153
tp3334
a(g370
g240
tp3335
a(g235
g302
tp3336
a(g80
g669
tp3337
a(g935
g860
tp3338
a(g2883
g1293
tp3339
a(g513
g667
tp3340
a(g406
g240
tp3341
a(g744
g95
tp3342
a(g1179
g387
tp3343
a(g1328
g605
tp3344
a(g863
g634
tp3345
a(g667
g152
tp3346
a(g792
g828
tp3347
a(g132
g737
tp3348
a(g477
g1017
tp3349
a(g1027
g150
tp3350
a(g112
g291
tp3351
a(g1046
g109
tp3352
a(g1040
g565
tp3353
a(g555
g576
tp3354
a(g1046
g536
tp3355
a(g394
g1143
tp3356
a(g807
g742
tp3357
a(g304
g636
tp3358
a(g361
g1415
tp3359
a(g1059
g407
tp3360
a(g187
g524
tp3361
a(g700
g1122
tp3362
a(g587
g114
tp3363
a(g702
g475
tp3364
a(g174
g139
tp3365
a(g118
g767
tp3366
a(g310
g238
tp3367
a(g555
g3
tp3368
a(g249
g401
tp3369
a(g905
g1196
tp3370
a(g327
g644
tp3371
a(g646
g1115
tp3372
a(g587
g1244
tp3373
a(g111
g291
tp3374
a(g105
g472
tp3375
a(g144
g237
tp3376
a(g258
g141
tp3377
a(S'MT-ND6'
p3378
S'SLC9B1P1'
p3379
tp3380
a(g460
g698
tp3381
a(g531
g1192
tp3382
a(g641
g92
tp3383
a(S'IGHJ6'
p3384
g506
tp3385
a(g1253
g703
tp3386
a(g663
g46
tp3387
a(g421
g69
tp3388
a(g651
g717
tp3389
a(g349
g863
tp3390
a(g1406
g1377
tp3391
a(g149
g1235
tp3392
a(g605
g1137
tp3393
a(g237
g422
tp3394
a(g1946
g475
tp3395
a(g1244
g52
tp3396
a(g601
g1375
tp3397
a(g348
g863
tp3398
a(g118
g602
tp3399
a(g12
g583
tp3400
a(g996
g665
tp3401
a(g467
g130
tp3402
a(g186
g1143
tp3403
a(g329
g101
tp3404
a(g1444
g1423
tp3405
a(g427
g70
tp3406
a(g1288
g129
tp3407
a(g240
g334
tp3408
a(g417
g158
tp3409
a(g91
g406
tp3410
a(g315
g441
tp3411
a(g474
g1643
tp3412
a(g274
g373
tp3413
a(g117
g766
tp3414
a(g683
g1148
tp3415
a(g1073
g1308
tp3416
a(g242
g199
tp3417
a(g349
g262
tp3418
a(g1398
g681
tp3419
a(g1244
g742
tp3420
a(g245
g1533
tp3421
a(g494
g3020
tp3422
a(g519
g848
tp3423
a(g91
g641
tp3424
a(g1002
g332
tp3425
a(g1381
g895
tp3426
a(g1008
g994
tp3427
a(g1008
g12
tp3428
a(g590
g305
tp3429
a(g659
g376
tp3430
a(g274
g1080
tp3431
a(g1161
g950
tp3432
a(g638
g631
tp3433
a(g853
g344
tp3434
a(g469
g296
tp3435
a(g994
g717
tp3436
a(g126
g49
tp3437
a(g275
g441
tp3438
a(g274
g1876
tp3439
a(g688
g293
tp3440
a(g2860
g2331
tp3441
a(g433
g299
tp3442
a(g329
g370
tp3443
a(g144
g101
tp3444
a(g599
g725
tp3445
a(g485
g2933
tp3446
a(g1082
g860
tp3447
a(g601
g117
tp3448
a(g1876
g372
tp3449
a(g1011
g799
tp3450
a(g1643
g1037
tp3451
a(g69
g101
tp3452
a(g393
g272
tp3453
a(g809
g2535
tp3454
a(g80
g578
tp3455
a(g469
g105
tp3456
a(g561
g332
tp3457
a(g248
g399
tp3458
a(g134
g363
tp3459
a(g78
g38
tp3460
a(g316
g442
tp3461
a(g242
g869
tp3462
a(g996
g387
tp3463
a(g120
g688
tp3464
a(g2721
g2331
tp3465
a(g978
g398
tp3466
a(g17
g546
tp3467
a(g1677
g36
tp3468
a(g414
g419
tp3469
a(g3142
g165
tp3470
a(g698
g536
tp3471
a(g174
g1011
tp3472
a(g715
g1832
tp3473
a(g1524
g411
tp3474
a(g146
g1444
tp3475
a(g319
g189
tp3476
a(g225
g158
tp3477
a(g524
g1143
tp3478
a(g843
g1403
tp3479
a(g120
g706
tp3480
a(g181
g950
tp3481
a(g163
g196
tp3482
a(g245
g837
tp3483
a(g229
g36
tp3484
a(g647
g33
tp3485
a(g1288
g792
tp3486
a(g112
g409
tp3487
a(g1175
g583
tp3488
a(g372
g572
tp3489
a(g494
g302
tp3490
a(g742
g115
tp3491
a(g427
g238
tp3492
a(g683
g737
tp3493
a(g280
g540
tp3494
a(g589
g544
tp3495
a(g1377
g156
tp3496
a(g295
g1165
tp3497
a(g560
g331
tp3498
a(g1316
g1760
tp3499
a(g23
g177
tp3500
a(g2195
g860
tp3501
a(g946
g1406
tp3502
a(g667
g172
tp3503
a(g406
g97
tp3504
a(g455
g931
tp3505
a(g513
g76
tp3506
a(g228
g723
tp3507
a(g1086
g1015
tp3508
a(g946
g156
tp3509
a(g75
g283
tp3510
a(g1154
g372
tp3511
a(g1716
g949
tp3512
a(g80
g237
tp3513
a(g982
g1253
tp3514
a(g304
g489
tp3515
a(g60
g89
tp3516
a(g141
g365
tp3517
a(g1086
g475
tp3518
a(g681
g212
tp3519
a(g5
g92
tp3520
a(g26
g126
tp3521
a(g865
g1061
tp3522
a(g720
g404
tp3523
a(g873
g1389
tp3524
a(g803
g1148
tp3525
a(g481
g204
tp3526
a(g1623
g319
tp3527
a(g262
g448
tp3528
a(g531
g318
tp3529
a(g1253
g231
tp3530
a(g6
g14
tp3531
a(g23
g460
tp3532
a(g149
g103
tp3533
a(g1253
g1037
tp3534
a(g393
g308
tp3535
a(g222
g688
tp3536
a(g158
g76
tp3537
a(g80
g69
tp3538
a(g70
g422
tp3539
a(g105
g296
tp3540
a(g144
g97
tp3541
a(g647
g1280
tp3542
a(g855
g605
tp3543
a(g497
g769
tp3544
a(g258
g142
tp3545
a(g427
g6
tp3546
a(g351
g583
tp3547
a(g139
g799
tp3548
a(g450
g406
tp3549
a(g1102
g726
tp3550
a(g789
g422
tp3551
a(g1398
g83
tp3552
a(g108
g536
tp3553
a(g117
g767
tp3554
a(g1086
g1036
tp3555
a(g1059
g15
tp3556
a(g647
g184
tp3557
a(g370
g237
tp3558
a(g378
g515
tp3559
a(g203
g550
tp3560
a(g767
g1760
tp3561
a(g237
g14
tp3562
a(g18
g527
tp3563
a(g391
g1518
tp3564
a(g21
g177
tp3565
a(g424
g946
tp3566
a(g376
g204
tp3567
a(g280
g442
tp3568
a(g576
g3
tp3569
a(g155
g1326
tp3570
a(g624
g1089
tp3571
a(g778
g172
tp3572
a(g414
g264
tp3573
a(g470
g72
tp3574
a(g51
g742
tp3575
a(g436
g409
tp3576
a(g506
S'TPPP'
p3577
tp3578
a(g407
g422
tp3579
a(g1059
g310
tp3580
a(g1108
g638
tp3581
a(g252
g44
tp3582
a(g759
g486
tp3583
a(g323
g114
tp3584
a(g29
g2391
tp3585
a(g155
g425
tp3586
a(g904
g30
tp3587
a(g595
g1199
tp3588
a(g621
g130
tp3589
a(g61
g357
tp3590
a(g11
g2
tp3591
a(g526
g17
tp3592
a(g1108
g1042
tp3593
a(g712
g89
tp3594
a(g604
g529
tp3595
a(g1460
g384
tp3596
a(g69
g237
tp3597
a(g55
g11
tp3598
a(g441
g281
tp3599
a(g126
g803
tp3600
a(g519
g971
tp3601
a(g534
g101
tp3602
a(g175
g139
tp3603
a(g80
g70
tp3604
a(g1244
g322
tp3605
a(g196
g76
tp3606
a(g669
g69
tp3607
a(g2830
g2101
tp3608
a(g747
g272
tp3609
a(g1070
g235
tp3610
a(g555
g99
tp3611
a(g1219
g1803
tp3612
a(g307
g384
tp3613
a(g460
g477
tp3614
a(g86
g1832
tp3615
a(g1036
g703
tp3616
a(g393
g384
tp3617
a(g709
g139
tp3618
a(g242
g342
tp3619
a(g78
g103
tp3620
a(g55
g583
tp3621
a(g1156
g376
tp3622
a(g264
g129
tp3623
a(g419
g169
tp3624
a(g472
g1034
tp3625
a(g341
g883
tp3626
a(g761
g409
tp3627
a(g723
g569
tp3628
a(g111
g177
tp3629
a(g318
g190
tp3630
a(g1381
g1408
tp3631
a(g334
g92
tp3632
a(g252
g386
tp3633
a(g1078
g782
tp3634
a(g761
g611
tp3635
a(g450
g422
tp3636
a(g43
g387
tp3637
a(g139
g795
tp3638
a(g149
g736
tp3639
a(g264
g467
tp3640
a(g331
g1002
tp3641
a(g109
g611
tp3642
a(g316
g1182
tp3643
a(g78
g127
tp3644
a(g322
g807
tp3645
a(g108
g177
tp3646
a(g129
g621
tp3647
a(g201
g152
tp3648
a(g310
g789
tp3649
a(g61
g356
tp3650
a(g415
g169
tp3651
a(g195
g171
tp3652
a(g2134
g529
tp3653
a(g709
g212
tp3654
a(g580
g828
tp3655
a(g1179
g381
tp3656
a(g651
g1207
tp3657
a(g789
g101
tp3658
a(g409
g611
tp3659
a(g240
g422
tp3660
a(g258
g161
tp3661
a(g3020
g495
tp3662
a(g57
g41
tp3663
a(g803
g1235
tp3664
a(g259
g769
tp3665
a(g6
g422
tp3666
a(g1377
g749
tp3667
a(g46
g363
tp3668
a(g1207
g12
tp3669
a(g1463
g1322
tp3670
a(g114
g9
tp3671
a(g1576
g1322
tp3672
a(g774
g529
tp3673
a(g8
g1244
tp3674
a(g1406
g1326
tp3675
a(g94
g152
tp3676
a(g319
g190
tp3677
a(g526
g18
tp3678
a(g853
g403
tp3679
a(g1059
g406
tp3680
a(g155
g1406
tp3681
a(g103
g49
tp3682
a(g797
g857
tp3683
a(g534
g69
tp3684
a(g1570
g931
tp3685
a(g452
g61
tp3686
a(g27
g737
tp3687
a(g398
g401
tp3688
a(g237
g407
tp3689
a(g723
g755
tp3690
a(g118
g1055
tp3691
a(g245
g1089
tp3692
a(g902
g47
tp3693
a(g747
g307
tp3694
a(g5
g15
tp3695
a(g1316
g767
tp3696
a(g261
g349
tp3697
a(g51
g137
tp3698
a(g20
g23
tp3699
a(g2435
g1015
tp3700
a(g108
g291
tp3701
a(g344
g67
tp3702
a(g1343
g1293
tp3703
a(g919
g755
tp3704
a(g464
g349
tp3705
a(g72
g1034
tp3706
a(g662
g1232
tp3707
a(g12
g717
tp3708
a(g2134
g345
tp3709
a(g527
g557
tp3710
a(g641
g14
tp3711
a(g242
g832
tp3712
a(g43
g1357
tp3713
a(g94
g226
tp3714
a(g1022
g1165
tp3715
a(g277
g448
tp3716
a(g14
g422
tp3717
a(g223
g121
tp3718
a(g1253
g1313
tp3719
a(g5
g240
tp3720
a(g823
g653
tp3721
a(g61
g89
tp3722
a(g709
g1011
tp3723
a(g75
g94
tp3724
a(g245
g625
tp3725
a(g725
g1103
tp3726
a(g5
g370
tp3727
a(g351
g55
tp3728
a(g51
g1617
tp3729
a(g242
g883
tp3730
a(g895
g1408
tp3731
a(g57
g782
tp3732
a(g329
g334
tp3733
a(g142
g161
tp3734
a(g378
g688
tp3735
a(g1108
S'RIMBP3'
p3736
tp3737
a(g479
g246
tp3738
a(g1011
g795
tp3739
a(g669
g240
tp3740
a(g1161
g181
tp3741
a(g70
g789
tp3742
a(g11
g3
tp3743
a(g1929
g605
tp3744
a(g171
g226
tp3745
a(g3142
g166
tp3746
a(g240
g238
tp3747
a(g933
g467
tp3748
a(g398
g249
tp3749
a(g444
g109
tp3750
a(g419
g467
tp3751
a(g641
g237
tp3752
a(g280
g1182
tp3753
a(g744
g195
tp3754
a(g91
g422
tp3755
a(g2174
g1505
tp3756
a(g274
g938
tp3757
a(g378
g2145
tp3758
a(g720
g529
tp3759
a(g590
g544
tp3760
a(g433
g1381
tp3761
a(g710
g985
tp3762
a(g433
g895
tp3763
a(g1078
g391
tp3764
a(g353
g1293
tp3765
a(g499
g728
tp3766
a(g412
g607
tp3767
a(g215
g1533
tp3768
a(g744
g75
tp3769
a(g444
g460
tp3770
a(g1161
g564
tp3771
a(g655
g994
tp3772
a(g391
g41
tp3773
a(g621
g828
tp3774
a(g1748
g57
tp3775
a(g659
g203
tp3776
a(g301
g495
tp3777
a(g240
g144
tp3778
a(g1002
g1034
tp3779
a(g149
g126
tp3780
a(g1716
g950
tp3781
a(g298
g433
tp3782
a(g161
g769
tp3783
a(g455
g1852
tp3784
a(g301
g235
tp3785
a(g1102
g599
tp3786
a(g424
g1377
tp3787
a(g644
g769
tp3788
a(g761
g112
tp3789
a(g1288
g621
tp3790
a(g452
g607
tp3791
a(g1748
g41
tp3792
a(g1188
g810
tp3793
a(g187
g308
tp3794
a(g380
g387
tp3795
a(g853
g775
tp3796
a(g534
g238
tp3797
a(g274
g372
tp3798
a(g780
g216
tp3799
a(g1193
g190
tp3800
a(g789
g237
tp3801
a(g127
g1148
tp3802
a(g69
g15
tp3803
a(g517
g54
tp3804
a(g534
g14
tp3805
a(g334
g422
tp3806
a(g455
g875
tp3807
a(g83
g799
tp3808
a(g219
g1175
tp3809
a(g1037
g232
tp3810
a(g1460
g1202
tp3811
a(g307
g1724
tp3812
a(g192
g11
tp3813
a(g1623
g189
tp3814
a(g883
g243
tp3815
a(g1207
g994
tp3816
a(g1760
g1055
tp3817
a(g555
g11
tp3818
a(g17
g1219
tp3819
a(g286
g1393
tp3820
a(g411
g356
tp3821
a(g275
g1182
tp3822
a(g641
g422
tp3823
a(g511
g561
tp3824
a(g433
g1763
tp3825
a(g329
g421
tp3826
a(g318
g532
tp3827
a(g641
g6
tp3828
a(g585
g472
tp3829
a(g469
g1002
tp3830
a(g192
g218
tp3831
a(g421
g101
tp3832
a(g624
g837
tp3833
a(g258
g327
tp3834
a(g2111
g902
tp3835
a(g457
g407
tp3836
a(g1253
g232
tp3837
a(g702
g231
tp3838
a(g681
g175
tp3839
a(g730
g700
tp3840
a(g69
g578
tp3841
a(g55
g3
tp3842
a(g641
g97
tp3843
a(g1460
g1724
tp3844
a(g513
g172
tp3845
a(g1029
g857
tp3846
a(g61
g412
tp3847
a(g75
g201
tp3848
a(g883
g832
tp3849
a(g417
g744
tp3850
a(g383
g747
tp3851
a(g54
g1175
tp3852
a(g351
g1175
tp3853
a(g807
g1617
tp3854
a(g1036
g1643
tp3855
a(g978
g399
tp3856
a(g78
g684
tp3857
a(g694
g728
tp3858
a(g695
g1832
tp3859
a(g175
g83
tp3860
a(g464
g277
tp3861
a(g859
g438
tp3862
a(g1207
g2
tp3863
a(g761
g436
tp3864
a(g365
g769
tp3865
a(g604
g344
tp3866
a(g758
g2933
tp3867
a(g305
g636
tp3868
a(g1389
g502
tp3869
a(g669
g406
tp3870
a(g513
g94
tp3871
a(g737
g684
tp3872
a(g272
g1724
tp3873
a(g195
g158
tp3874
a(g513
g744
tp3875
a(g11
g193
tp3876
a(g137
g1617
tp3877
a(g823
g356
tp3878
a(g1154
g571
tp3879
a(g245
g780
tp3880
a(g199
g342
tp3881
a(g52
g115
tp3882
a(g271
g384
tp3883
a(g712
g823
tp3884
a(g1760
g813
tp3885
a(g24
g698
tp3886
a(g763
g391
tp3887
a(g526
g557
tp3888
a(g380
g252
tp3889
a(g70
g237
tp3890
a(g26
g736
tp3891
a(g1182
g572
tp3892
a(g414
g580
tp3893
a(g393
g271
tp3894
a(g702
g1643
tp3895
a(g348
g465
tp3896
a(g360
g1278
tp3897
a(g168
g467
tp3898
a(g820
g332
tp3899
a(g20
g436
tp3900
a(g1073
S'LPAR6'
p3901
tp3902
a(g272
g308
tp3903
a(g1066
g494
tp3904
a(g1070
g494
tp3905
a(g275
g281
tp3906
a(g275
g740
tp3907
a(g1357
g387
tp3908
a(g519
g60
tp3909
a(g669
g144
tp3910
a(g312
g866
tp3911
a(g240
g6
tp3912
a(g381
g1357
tp3913
a(g142
g365
tp3914
a(g902
g135
tp3915
a(g605
g775
tp3916
a(g219
g994
tp3917
a(g152
g76
tp3918
a(g875
g618
tp3919
a(g1192
g319
tp3920
a(g295
g332
tp3921
a(g370
g406
tp3922
a(g2111
g1232
tp3923
a(g348
g797
tp3924
a(g905
g30
tp3925
a(g315
g372
tp3926
a(g322
g9
tp3927
a(g144
g14
tp3928
a(g780
g246
tp3929
a(g222
g378
tp3930
a(g316
g1080
tp3931
a(g106
g470
tp3932
a(g246
g1533
tp3933
a(g360
g1414
tp3934
a(g595
g953
tp3935
a(g651
g655
tp3936
a(g344
g720
tp3937
a(g92
g407
tp3938
a(g438
g2179
tp3939
a(g155
g1925
tp3940
a(g215
g245
tp3941
a(g1332
g832
tp3942
a(g895
g434
tp3943
a(g142
g769
tp3944
a(g370
g101
tp3945
a(g421
g457
tp3946
a(g403
g67
tp3947
a(g883
g342
tp3948
a(g271
g187
tp3949
a(g421
g237
tp3950
a(g641
g310
tp3951
a(g1034
g296
tp3952
a(g1207
g99
tp3953
a(g799
g795
tp3954
a(g587
g323
tp3955
a(g70
g407
tp3956
a(g55
g12
tp3957
a(g356
g607
tp3958
a(g513
g195
tp3959
a(g561
g1165
tp3960
a(g1288
g415
tp3961
a(g199
g832
tp3962
a(g617
g455
tp3963
a(g195
g226
tp3964
a(g1253
g1015
tp3965
a(g1318
g759
tp3966
a(g1688
S'ESPNP'
p3967
tp3968
a(g2174
g1423
tp3969
a(g75
g171
tp3970
a(g1346
g383
tp3971
a(g534
g789
tp3972
a(g291
g1017
tp3973
a(g782
g41
tp3974
a(g219
g555
tp3975
a(g712
g61
tp3976
a(g372
g1080
tp3977
a(g580
g169
tp3978
a(g152
g692
tp3979
a(g605
g2134
tp3980
a(g310
g70
tp3981
a(g555
g54
tp3982
a(g1154
g275
tp3983
a(g1398
g710
tp3984
a(g329
g144
tp3985
a(g1089
g1533
tp3986
a(g694
g1607
tp3987
a(g365
g259
tp3988
a(g641
g669
tp3989
a(g78
g49
tp3990
a(g26
g103
tp3991
a(g365
g1173
tp3992
a(g242
g198
tp3993
a(g274
g1182
tp3994
a(g322
g742
tp3995
a(g669
g789
tp3996
a(g106
g72
tp3997
a(g196
g172
tp3998
a(g1576
g430
tp3999
a(g417
g692
tp4000
a(g1161
g180
tp4001
a(g315
g373
tp4002
a(g1406
g156
tp4003
a(g2435
g1036
tp4004
a(g789
g97
tp4005
a(g567
g121
tp4006
a(g497
g161
tp4007
a(g953
g911
tp4008
a(g621
g169
tp4009
a(g1036
g702
tp4010
a(g152
g171
tp4011
a(g617
g700
tp4012
a(g271
g307
tp4013
a(g1235
g1148
tp4014
a(g183
g32
tp4015
a(g83
g213
tp4016
a(g261
g348
tp4017
a(g1623
g531
tp4018
a(g427
g69
tp4019
a(g15
g238
tp4020
a(g761
g177
tp4021
a(g744
g171
tp4022
a(g216
g625
tp4023
a(g444
g698
tp4024
a(g120
g515
tp4025
a(g196
g692
tp4026
a(g960
S'RP11-97O12.7'
p4027
tp4028
a(g103
g803
tp4029
a(g66
g345
tp4030
a(g323
g9
tp4031
a(g117
g1375
tp4032
a(g80
g92
tp4033
a(g91
g534
tp4034
a(g144
g407
tp4035
a(g126
g737
tp4036
a(g331
g1165
tp4037
a(g555
g55
tp4038
a(g433
g288
tp4039
a(g111
g409
tp4040
a(g108
g21
tp4041
a(g450
g421
tp4042
a(g105
g73
tp4043
a(g80
g422
tp4044
a(g242
g339
tp4045
a(g1059
g421
tp4046
a(g168
g792
tp4047
a(g156
g845
tp4048
a(g938
g740
tp4049
a(g406
g14
tp4050
a(g902
g64
tp4051
a(g112
g611
tp4052
a(g1063
g63
tp4053
a(g1603
g1677
tp4054
a(g797
g278
tp4055
a(g3967
g2318
tp4056
a(g1852
g875
tp4057
a(g127
g736
tp4058
a(g694
g715
tp4059
a(g698
g477
tp4060
a(g1046
g477
tp4061
a(g280
g315
tp4062
a(g70
g238
tp4063
a(g669
g14
tp4064
a(g127
g49
tp4065
a(g108
g409
tp4066
a(g883
g199
tp4067
a(g310
g97
tp4068
a(g1102
g725
tp4069
a(g578
g237
tp4070
a(g470
g73
tp4071
a(g163
g225
tp4072
a(g513
g196
tp4073
a(g360
g1277
tp4074
a(g108
g611
tp4075
a(g457
g334
tp4076
a(g1705
g991
tp4077
a(g683
g736
tp4078
a(g1073
g3332
tp4079
a(g511
g1002
tp4080
a(g1460
g1143
tp4081
a(g763
g1078
tp4082
a(g667
g226
tp4083
a(g1929
g529
tp4084
a(g296
g73
tp4085
a(g235
g495
tp4086
a(g2145
g293
tp4087
a(g307
g272
tp4088
a(g83
g795
tp4089
a(g160
g366
tp4090
a(g298
g289
tp4091
a(g1108
g1362
tp4092
a(g511
g1165
tp4093
a(g334
g237
tp4094
a(g291
g177
tp4095
a(g126
g27
tp4096
a(g327
g365
tp4097
a(g567
g688
tp4098
a(g421
g669
tp4099
a(g52
g9
tp4100
a(g92
g97
tp4101
a(g1022
g1002
tp4102
a(g329
g422
tp4103
a(g2174
g1410
tp4104
a(g1161
g987
tp4105
a(g534
g422
tp4106
a(g180
g949
tp4107
a(g52
g807
tp4108
a(g195
g692
tp4109
a(g1763
g299
tp4110
a(g680
g1355
tp4111
a(g52
g1617
tp4112
a(g70
g334
tp4113
a(g36
g755
tp4114
a(g744
g172
tp4115
a(g1091
g752
tp4116
a(g105
g561
tp4117
a(g904
g29
tp4118
a(g709
g1355
tp4119
a(g1078
g2374
tp4120
a(g349
g465
tp4121
a(g186
g1460
tp4122
a(g88
g653
tp4123
a(g271
g394
tp4124
a(g1460
g609
tp4125
a(g792
g130
tp4126
a(g150
g803
tp4127
a(g1192
g189
tp4128
a(g417
g225
tp4129
a(g142
g366
tp4130
a(g252
g43
tp4131
a(g160
g365
tp4132
a(g1328
g344
tp4133
a(g702
g1015
tp4134
a(g460
g1017
tp4135
a(g163
g171
tp4136
a(g669
g334
tp4137
a(g1179
g996
tp4138
a(g310
g329
tp4139
a(g1066
g503
tp4140
a(g166
g2864
tp4141
a(g1034
g332
tp4142
a(g585
g296
tp4143
a(g215
g246
tp4144
a(g605
g403
tp4145
a(g1316
g602
tp4146
a(g412
g357
tp4147
a(g761
g291
tp4148
a(g467
g828
tp4149
a(g183
g1280
tp4150
a(g427
g92
tp4151
a(g978
g1403
tp4152
a(g383
g187
tp4153
a(g168
g415
tp4154
a(g399
g401
tp4155
a(g494
g1389
tp4156
a(g1328
g345
tp4157
a(g511
g560
tp4158
a(g92
g422
tp4159
a(g837
g1533
tp4160
a(g278
g262
tp4161
a(g146
g1423
tp4162
a(g331
g72
tp4163
a(g638
g3736
tp4164
a(g589
g489
tp4165
a(g1148
g737
tp4166
a(g519
g823
tp4167
a(g1946
g1015
tp4168
a(g1332
g883
tp4169
a(g450
g101
tp4170
a(g609
g187
tp4171
a(g252
g613
tp4172
a(g281
g372
tp4173
a(g1091
g810
tp4174
a(g576
g583
tp4175
a(g700
g931
tp4176
a(g417
g95
tp4177
a(g590
g489
tp4178
a(g1524
g356
tp4179
a(g536
g1017
tp4180
a(g23
g536
tp4181
a(g502
g301
tp4182
a(g841
g307
tp4183
a(g411
g89
tp4184
a(g348
g262
tp4185
a(g775
g529
tp4186
a(g511
g470
tp4187
a(g2145
g515
tp4188
a(g406
g144
tp4189
a(g766
g813
tp4190
a(g919
g228
tp4191
a(g240
g15
tp4192
a(g1643
g703
tp4193
a(g749
g483
tp4194
a(g6
g101
tp4195
a(g651
g517
tp4196
a(g1029
g863
tp4197
a(g450
g5
tp4198
a(g1232
g363
tp4199
a(g578
g15
tp4200
a(g1102
g598
tp4201
a(g1505
g1423
tp4202
a(g69
g238
tp4203
a(g111
g23
tp4204
a(g1803
g267
tp4205
a(g720
g345
tp4206
a(g1303
g1623
tp4207
a(g1318
g485
tp4208
a(g613
g996
tp4209
a(g457
g97
tp4210
a(g134
g1232
tp4211
a(g700
g1570
tp4212
a(g809
g752
tp4213
a(g186
g1202
tp4214
a(g5
g641
tp4215
a(g946
g749
tp4216
a(g277
g634
tp4217
a(g2435
g1253
tp4218
a(g20
g24
tp4219
a(g339
g341
tp4220
a(g857
g262
tp4221
a(g534
g407
tp4222
a(g1161
g890
tp4223
a(g601
g118
tp4224
a(g383
g394
tp4225
a(g450
g578
tp4226
a(g208
g860
tp4227
a(g2
g994
tp4228
a(g759
g2933
tp4229
a(g902
g134
tp4230
a(g511
g106
tp4231
a(g280
g373
tp4232
a(g706
g293
tp4233
a(g345
g67
tp4234
a(g192
g219
tp4235
a(g82
g213
tp4236
a(g534
g6
tp4237
a(g1316
g1375
tp4238
a(g712
g357
tp4239
a(g1318
g2933
tp4240
a(g208
g2179
tp4241
a(g195
g225
tp4242
a(g27
g132
tp4243
a(g158
g778
tp4244
a(g222
g567
tp4245
a(g938
g372
tp4246
a(g108
g24
tp4247
a(g766
g1760
tp4248
a(g863
g857
tp4249
a(g472
g1002
tp4250
a(g1389
g3020
tp4251
a(g141
g497
tp4252
a(g946
g483
tp4253
a(g121
g293
tp4254
a(g519
g412
tp4255
a(g641
g240
tp4256
a(g427
g80
tp4257
a(g40
g1518
tp4258
a(g1027
g1148
tp4259
a(g692
g153
tp4260
a(g669
g578
tp4261
a(g960
S'AGAP3'
p4262
tp4263
a(g630
g1362
tp4264
a(g855
g345
tp4265
a(g469
g511
tp4266
a(g978
g401
tp4267
a(g327
g366
tp4268
a(g481
g256
tp4269
a(g329
g15
tp4270
a(g298
g1381
tp4271
a(g97
g422
tp4272
a(g256
g204
tp4273
a(g118
g813
tp4274
a(g404
g529
tp4275
a(g1603
g36
tp4276
a(g47
g135
tp4277
a(g21
g477
tp4278
a(g1008
g55
tp4279
a(g578
g407
tp4280
a(g560
g332
tp4281
a(g120
g567
tp4282
a(g17
g1803
tp4283
a(g334
g238
tp4284
a(g26
g684
tp4285
a(g749
g845
tp4286
a(g186
g1724
tp4287
a(g595
g911
tp4288
a(g5
g421
tp4289
a(g1689
g2318
tp4290
a(g1070
g1389
tp4291
a(g848
g357
tp4292
a(g1078
g965
tp4293
a(g938
g1182
tp4294
a(g1277
g1414
tp4295
a(g557
g1803
tp4296
a(g54
g583
tp4297
a(g680
g212
tp4298
a(g144
g334
tp4299
a(g1059
g422
tp4300
a(g2883
g312
tp4301
a(g1929
g720
tp4302
a(g149
g27
tp4303
a(g348
g634
tp4304
a(g1089
g837
tp4305
a(g1313
g702
tp4306
a(g171
g153
tp4307
a(g240
g101
tp4308
a(g1377
g483
tp4309
a(g436
g23
tp4310
a(g82
g681
tp4311
a(g1046
g112
tp4312
a(g1316
g118
tp4313
a(g873
g494
tp4314
a(g139
g985
tp4315
a(g450
g6
tp4316
a(g565
g950
tp4317
a(g198
g832
tp4318
a(g580
g621
tp4319
a(g146
g1505
tp4320
a(g155
g483
tp4321
a(g27
g803
tp4322
a(g278
g448
tp4323
a(g534
g334
tp4324
a(g873
g301
tp4325
a(g40
g57
tp4326
a(g384
g308
tp4327
a(g933
g130
tp4328
a(g662
g363
tp4329
a(g571
g316
tp4330
a(g823
g357
tp4331
a(g534
g92
tp4332
a(g680
g799
tp4333
a(g261
g277
tp4334
a(g931
g618
tp4335
a(g80
g421
tp4336
a(g919
g569
tp4337
a(g1192
g532
tp4338
a(g694
g1498
tp4339
a(g313
g1293
tp4340
a(g44
g387
tp4341
a(g982
g475
tp4342
a(g775
g1137
tp4343
a(g1086
g1643
tp4344
a(g544
g305
tp4345
a(g1146
g313
tp4346
a(g117
g1760
tp4347
a(g89
g357
tp4348
a(g931
g875
tp4349
a(g663
g135
tp4350
a(g419
g828
tp4351
a(g692
g226
tp4352
a(g634
g278
tp4353
a(g1328
g529
tp4354
a(g634
g465
tp4355
a(g2100
g2458
tp4356
a(g971
g607
tp4357
a(g219
g12
tp4358
a(g12
g2
tp4359
a(g1146
g1061
tp4360
a(g8
g323
tp4361
a(g578
g97
tp4362
a(g472
g331
tp4363
a(g1716
g1161
tp4364
a(g38
g1148
tp4365
a(g29
g1196
tp4366
a(g982
g1086
tp4367
a(g223
g515
tp4368
a(g174
g1355
tp4369
a(g414
g933
tp4370
a(g280
g571
tp4371
a(g111
g444
tp4372
a(g1073
g1786
tp4373
a(g1066
g235
tp4374
a(g1518
g41
tp4375
a(g383
g186
tp4376
a(g587
g322
tp4377
a(g11
g1175
tp4378
a(g415
g933
tp4379
a(g353
g522
tp4380
a(g604
g853
tp4381
a(g399
g1111
tp4382
a(g94
g225
tp4383
a(g5
g238
tp4384
a(g277
g348
tp4385
a(g1066
g1389
tp4386
a(g387
g665
tp4387
a(g327
g161
tp4388
a(g641
g421
tp4389
a(g1008
g576
tp4390
a(g305
g818
tp4391
a(g218
g54
tp4392
a(g1288
g130
tp4393
a(g353
g866
tp4394
a(g604
g720
tp4395
a(g529
g1137
tp4396
a(g1008
g193
tp4397
a(g91
g5
tp4398
a(g655
g55
tp4399
a(g1029
g262
tp4400
a(g277
g349
tp4401
a(g316
g740
tp4402
a(g291
g611
tp4403
a(g386
g996
tp4404
a(g406
g70
tp4405
a(g105
g1165
tp4406
a(g54
g2
tp4407
a(g277
g1029
tp4408
a.