(lp1
S'hsa:10327'
p2
aS'hsa:124'
p3
aS'hsa:125'
p4
aS'hsa:126'
p5
aS'hsa:127'
p6
aS'hsa:128'
p7
aS'hsa:130'
p8
aS'hsa:130589'
p9
aS'hsa:131'
p10
aS'hsa:160287'
p11
aS'hsa:1737'
p12
aS'hsa:1738'
p13
aS'hsa:2023'
p14
aS'hsa:2026'
p15
aS'hsa:2027'
p16
aS'hsa:217'
p17
aS'hsa:218'
p18
aS'hsa:219'
p19
aS'hsa:220'
p20
aS'hsa:2203'
p21
aS'hsa:221'
p22
aS'hsa:222'
p23
aS'hsa:223'
p24
aS'hsa:224'
p25
aS'hsa:226'
p26
aS'hsa:229'
p27
aS'hsa:230'
p28
aS'hsa:2538'
p29
aS'hsa:2597'
p30
aS'hsa:26330'
p31
aS'hsa:2645'
p32
aS'hsa:2821'
p33
aS'hsa:3098'
p34
aS'hsa:3099'
p35
aS'hsa:3101'
p36
aS'hsa:3939'
p37
aS'hsa:3945'
p38
aS'hsa:3948'
p39
aS'hsa:441531'
p40
aS'hsa:501'
p41
aS'hsa:5105'
p42
aS'hsa:5106'
p43
aS'hsa:5160'
p44
aS'hsa:5161'
p45
aS'hsa:5162'
p46
aS'hsa:5211'
p47
aS'hsa:5213'
p48
aS'hsa:5214'
p49
aS'hsa:5223'
p50
aS'hsa:5224'
p51
aS'hsa:5230'
p52
aS'hsa:5232'
p53
aS'hsa:5236'
p54
aS'hsa:5313'
p55
aS'hsa:5315'
p56
aS'hsa:55276'
p57
aS'hsa:55902'
p58
aS'hsa:57818'
p59
aS'hsa:669'
p60
aS'hsa:7167'
p61
aS'hsa:80201'
p62
aS'hsa:83440'
p63
aS'hsa:84532'
p64
aS'hsa:8789'
p65
aS'hsa:92483'
p66
aS'hsa:92579'
p67
aS'hsa:9562'
p68
aS'hsa:1431'
p69
aS'hsa:1743'
p70
aS'hsa:2271'
p71
aS'hsa:3417'
p72
aS'hsa:3418'
p73
aS'hsa:3419'
p74
aS'hsa:3420'
p75
aS'hsa:3421'
p76
aS'hsa:4190'
p77
aS'hsa:4191'
p78
aS'hsa:47'
p79
aS'hsa:48'
p80
aS'hsa:4967'
p81
aS'hsa:50'
p82
aS'hsa:5091'
p83
aS'hsa:55753'
p84
aS'hsa:6389'
p85
aS'hsa:6390'
p86
aS'hsa:6391'
p87
aS'hsa:6392'
p88
aS'hsa:8801'
p89
aS'hsa:8802'
p90
aS'hsa:8803'
p91
aS'hsa:132158'
p92
aS'hsa:221823'
p93
aS'hsa:22934'
p94
aS'hsa:2539'
p95
aS'hsa:25796'
p96
aS'hsa:414328'
p97
aS'hsa:51071'
p98
aS'hsa:5226'
p99
aS'hsa:5631'
p100
aS'hsa:5634'
p101
aS'hsa:6120'
p102
aS'hsa:64080'
p103
aS'hsa:6888'
p104
aS'hsa:7086'
p105
aS'hsa:729020'
p106
aS'hsa:8277'
p107
aS'hsa:84076'
p108
aS'hsa:9104'
p109
aS'hsa:9563'
p110
aS'hsa:10720'
p111
aS'hsa:10941'
p112
aS'hsa:231'
p113
aS'hsa:27294'
p114
aS'hsa:2990'
p115
aS'hsa:51084'
p116
aS'hsa:51181'
p117
aS'hsa:54490'
p118
aS'hsa:54575'
p119
aS'hsa:54576'
p120
aS'hsa:54577'
p121
aS'hsa:54578'
p122
aS'hsa:54579'
p123
aS'hsa:54600'
p124
aS'hsa:54657'
p125
aS'hsa:54658'
p126
aS'hsa:54659'
p127
aS'hsa:57016'
p128
aS'hsa:574537'
p129
aS'hsa:6652'
p130
aS'hsa:729920'
p131
aS'hsa:7358'
p132
aS'hsa:7360'
p133
aS'hsa:7363'
p134
aS'hsa:7364'
p135
aS'hsa:7365'
p136
aS'hsa:7366'
p137
aS'hsa:7367'
p138
aS'hsa:79799'
p139
aS'hsa:9365'
p140
aS'hsa:9942'
p141
aS'hsa:197258'
p142
aS'hsa:26007'
p143
aS'hsa:2762'
p144
aS'hsa:29925'
p145
aS'hsa:29926'
p146
aS'hsa:3795'
p147
aS'hsa:4351'
p148
aS'hsa:5207'
p149
aS'hsa:5208'
p150
aS'hsa:5209'
p151
aS'hsa:5210'
p152
aS'hsa:5372'
p153
aS'hsa:5373'
p154
aS'hsa:55556'
p155
aS'hsa:57103'
p156
aS'hsa:7264'
p157
aS'hsa:8790'
p158
aS'hsa:2548'
p159
aS'hsa:2582'
p160
aS'hsa:2584'
p161
aS'hsa:2592'
p162
aS'hsa:2595'
p163
aS'hsa:2683'
p164
aS'hsa:2717'
p165
aS'hsa:2720'
p166
aS'hsa:3906'
p167
aS'hsa:3938'
p168
aS'hsa:6476'
p169
aS'hsa:8704'
p170
aS'hsa:8972'
p171
aS'hsa:93432'
p172
aS'hsa:55586'
p173
aS'hsa:2180'
p174
aS'hsa:2181'
p175
aS'hsa:2182'
p176
aS'hsa:2194'
p177
aS'hsa:23205'
p178
aS'hsa:23305'
p179
aS'hsa:27349'
p180
aS'hsa:31'
p181
aS'hsa:32'
p182
aS'hsa:51703'
p183
aS'hsa:54995'
p184
aS'hsa:55301'
p185
aS'hsa:81616'
p186
aS'hsa:10449'
p187
aS'hsa:10965'
p188
aS'hsa:11332'
p189
aS'hsa:122970'
p190
aS'hsa:1892'
p191
aS'hsa:201562'
p192
aS'hsa:3030'
p193
aS'hsa:3032'
p194
aS'hsa:3033'
p195
aS'hsa:401494'
p196
aS'hsa:51102'
p197
aS'hsa:51144'
p198
aS'hsa:51495'
p199
aS'hsa:54898'
p200
aS'hsa:5538'
p201
aS'hsa:60481'
p202
aS'hsa:641371'
p203
aS'hsa:64834'
p204
aS'hsa:6785'
p205
aS'hsa:79071'
p206
aS'hsa:79993'
p207
aS'hsa:83401'
p208
aS'hsa:9200'
p209
aS'hsa:9374'
p210
aS'hsa:9524'
p211
aS'hsa:10455'
p212
aS'hsa:126129'
p213
aS'hsa:1374'
p214
aS'hsa:1375'
p215
aS'hsa:1376'
p216
aS'hsa:1579'
p217
aS'hsa:1632'
p218
aS'hsa:1962'
p219
aS'hsa:2639'
p220
aS'hsa:284541'
p221
aS'hsa:30'
p222
aS'hsa:33'
p223
aS'hsa:34'
p224
aS'hsa:35'
p225
aS'hsa:36'
p226
aS'hsa:37'
p227
aS'hsa:38'
p228
aS'hsa:39'
p229
aS'hsa:51'
p230
aS'hsa:8310'
p231
aS'hsa:3155'
p232
aS'hsa:3157'
p233
aS'hsa:3158'
p234
aS'hsa:5019'
p235
aS'hsa:54511'
p236
aS'hsa:56898'
p237
aS'hsa:622'
p238
aS'hsa:64064'
p239
aS'hsa:1056'
p240
aS'hsa:10682'
p241
aS'hsa:10826'
p242
aS'hsa:120227'
p243
aS'hsa:1591'
p244
aS'hsa:1594'
p245
aS'hsa:1595'
p246
aS'hsa:1717'
p247
aS'hsa:1718'
p248
aS'hsa:2222'
p249
aS'hsa:3988'
p250
aS'hsa:4047'
p251
aS'hsa:50814'
p252
aS'hsa:51478'
p253
aS'hsa:6307'
p254
aS'hsa:6309'
p255
aS'hsa:6646'
p256
aS'hsa:6713'
p257
aS'hsa:7108'
p258
aS'hsa:8435'
p259
aS'hsa:10005'
p260
aS'hsa:10858'
p261
aS'hsa:10998'
p262
aS'hsa:1109'
p263
aS'hsa:1581'
p264
aS'hsa:1582'
p265
aS'hsa:1593'
p266
aS'hsa:23600'
p267
aS'hsa:3295'
p268
aS'hsa:51302'
p269
aS'hsa:570'
p270
aS'hsa:6342'
p271
aS'hsa:6718'
p272
aS'hsa:80270'
p273
aS'hsa:8309'
p274
aS'hsa:9023'
p275
aS'hsa:9420'
p276
aS'hsa:10229'
p277
aS'hsa:154807'
p278
aS'hsa:1728'
p279
aS'hsa:2677'
p280
aS'hsa:27235'
p281
aS'hsa:3242'
p282
aS'hsa:51004'
p283
aS'hsa:51805'
p284
aS'hsa:6898'
p285
aS'hsa:79001'
p286
aS'hsa:84274'
p287
aS'hsa:100861540'
p288
aS'hsa:1312'
p289
aS'hsa:1543'
p290
aS'hsa:1544'
p291
aS'hsa:1545'
p292
aS'hsa:1551'
p293
aS'hsa:1571'
p294
aS'hsa:1576'
p295
aS'hsa:1577'
p296
aS'hsa:1583'
p297
aS'hsa:1584'
p298
aS'hsa:1585'
p299
aS'hsa:1586'
p300
aS'hsa:1588'
p301
aS'hsa:1589'
p302
aS'hsa:1645'
p303
aS'hsa:1646'
p304
aS'hsa:3283'
p305
aS'hsa:3284'
p306
aS'hsa:3290'
p307
aS'hsa:3291'
p308
aS'hsa:3292'
p309
aS'hsa:3293'
p310
aS'hsa:3294'
p311
aS'hsa:412'
p312
aS'hsa:6715'
p313
aS'hsa:6716'
p314
aS'hsa:6783'
p315
aS'hsa:6820'
p316
aS'hsa:7923'
p317
aS'hsa:79644'
p318
aS'hsa:8630'
p319
aS'hsa:8644'
p320
aS'hsa:100532726'
p321
aS'hsa:10063'
p322
aS'hsa:10312'
p323
aS'hsa:10476'
p324
aS'hsa:10632'
p325
aS'hsa:10975'
p326
aS'hsa:125965'
p327
aS'hsa:126328'
p328
aS'hsa:127124'
p329
aS'hsa:1327'
p330
aS'hsa:1329'
p331
aS'hsa:1337'
p332
aS'hsa:1339'
p333
aS'hsa:1340'
p334
aS'hsa:1345'
p335
aS'hsa:1346'
p336
aS'hsa:1347'
p337
aS'hsa:1349'
p338
aS'hsa:1350'
p339
aS'hsa:1351'
p340
aS'hsa:1352'
p341
aS'hsa:1353'
p342
aS'hsa:1355'
p343
aS'hsa:1537'
p344
aS'hsa:155066'
p345
aS'hsa:170712'
p346
aS'hsa:23545'
p347
aS'hsa:245972'
p348
aS'hsa:245973'
p349
aS'hsa:27068'
p350
aS'hsa:27089'
p351
aS'hsa:29796'
p352
aS'hsa:341947'
p353
aS'hsa:374291'
p354
aS'hsa:440567'
p355
aS'hsa:4508'
p356
aS'hsa:4509'
p357
aS'hsa:4512'
p358
aS'hsa:4513'
p359
aS'hsa:4514'
p360
aS'hsa:4519'
p361
aS'hsa:4535'
p362
aS'hsa:4536'
p363
aS'hsa:4537'
p364
aS'hsa:4538'
p365
aS'hsa:4539'
p366
aS'hsa:4540'
p367
aS'hsa:4541'
p368
aS'hsa:4694'
p369
aS'hsa:4695'
p370
aS'hsa:4696'
p371
aS'hsa:4697'
p372
aS'hsa:4698'
p373
aS'hsa:4700'
p374
aS'hsa:4701'
p375
aS'hsa:4702'
p376
aS'hsa:4704'
p377
aS'hsa:4705'
p378
aS'hsa:4706'
p379
aS'hsa:4707'
p380
aS'hsa:4708'
p381
aS'hsa:4709'
p382
aS'hsa:4710'
p383
aS'hsa:4711'
p384
aS'hsa:4712'
p385
aS'hsa:4713'
p386
aS'hsa:4714'
p387
aS'hsa:4715'
p388
aS'hsa:4716'
p389
aS'hsa:4717'
p390
aS'hsa:4718'
p391
aS'hsa:4719'
p392
aS'hsa:4720'
p393
aS'hsa:4722'
p394
aS'hsa:4723'
p395
aS'hsa:4724'
p396
aS'hsa:4725'
p397
aS'hsa:4726'
p398
aS'hsa:4728'
p399
aS'hsa:4729'
p400
aS'hsa:4731'
p401
aS'hsa:479'
p402
aS'hsa:495'
p403
aS'hsa:496'
p404
aS'hsa:498'
p405
aS'hsa:506'
p406
aS'hsa:50617'
p407
aS'hsa:509'
p408
aS'hsa:51079'
p409
aS'hsa:513'
p410
aS'hsa:51382'
p411
aS'hsa:514'
p412
aS'hsa:515'
p413
aS'hsa:516'
p414
aS'hsa:51606'
p415
aS'hsa:517'
p416
aS'hsa:518'
p417
aS'hsa:521'
p418
aS'hsa:522'
p419
aS'hsa:523'
p420
aS'hsa:525'
p421
aS'hsa:526'
p422
aS'hsa:527'
p423
aS'hsa:528'
p424
aS'hsa:529'
p425
aS'hsa:533'
p426
aS'hsa:534'
p427
aS'hsa:535'
p428
aS'hsa:537'
p429
aS'hsa:539'
p430
aS'hsa:54539'
p431
aS'hsa:5464'
p432
aS'hsa:55967'
p433
aS'hsa:56901'
p434
aS'hsa:64077'
p435
aS'hsa:7381'
p436
aS'hsa:7384'
p437
aS'hsa:7385'
p438
aS'hsa:7386'
p439
aS'hsa:7388'
p440
aS'hsa:84701'
p441
aS'hsa:8992'
p442
aS'hsa:90423'
p443
aS'hsa:9114'
p444
aS'hsa:9167'
p445
aS'hsa:9296'
p446
aS'hsa:9377'
p447
aS'hsa:9550'
p448
aS'hsa:9551'
p449
aS'hsa:100526760'
p450
aS'hsa:1373'
p451
aS'hsa:162417'
p452
aS'hsa:27165'
p453
aS'hsa:2744'
p454
aS'hsa:2746'
p455
aS'hsa:2747'
p456
aS'hsa:2752'
p457
aS'hsa:2805'
p458
aS'hsa:2806'
p459
aS'hsa:2875'
p460
aS'hsa:383'
p461
aS'hsa:384'
p462
aS'hsa:435'
p463
aS'hsa:445'
p464
aS'hsa:4842'
p465
aS'hsa:4843'
p466
aS'hsa:4846'
p467
aS'hsa:5009'
p468
aS'hsa:84706'
p469
aS'hsa:95'
p470
aS'hsa:100'
p471
aS'hsa:100526794'
p472
aS'hsa:101060521'
p473
aS'hsa:10201'
p474
aS'hsa:102157402'
p475
aS'hsa:10606'
p476
aS'hsa:10621'
p477
aS'hsa:10622'
p478
aS'hsa:10623'
p479
aS'hsa:107'
p480
aS'hsa:10714'
p481
aS'hsa:108'
p482
aS'hsa:10846'
p483
aS'hsa:109'
p484
aS'hsa:111'
p485
aS'hsa:11128'
p486
aS'hsa:11164'
p487
aS'hsa:112'
p488
aS'hsa:113'
p489
aS'hsa:114'
p490
aS'hsa:115'
p491
aS'hsa:115024'
p492
aS'hsa:122481'
p493
aS'hsa:122622'
p494
aS'hsa:124583'
p495
aS'hsa:131870'
p496
aS'hsa:132'
p497
aS'hsa:158'
p498
aS'hsa:158067'
p499
aS'hsa:159'
p500
aS'hsa:1633'
p501
aS'hsa:171568'
p502
aS'hsa:1716'
p503
aS'hsa:196883'
p504
aS'hsa:203'
p505
aS'hsa:204'
p506
aS'hsa:205'
p507
aS'hsa:221264'
p508
aS'hsa:221830'
p509
aS'hsa:2272'
p510
aS'hsa:22875'
p511
aS'hsa:22978'
p512
aS'hsa:23649'
p513
aS'hsa:246721'
p514
aS'hsa:25885'
p515
aS'hsa:2618'
p516
aS'hsa:26289'
p517
aS'hsa:270'
p518
aS'hsa:271'
p519
aS'hsa:27115'
p520
aS'hsa:272'
p521
aS'hsa:2766'
p522
aS'hsa:2977'
p523
aS'hsa:2982'
p524
aS'hsa:2983'
p525
aS'hsa:2984'
p526
aS'hsa:2986'
p527
aS'hsa:2987'
p528
aS'hsa:29922'
p529
aS'hsa:3000'
p530
aS'hsa:30833'
p531
aS'hsa:30834'
p532
aS'hsa:318'
p533
aS'hsa:3251'
p534
aS'hsa:353'
p535
aS'hsa:3614'
p536
aS'hsa:3615'
p537
aS'hsa:3704'
p538
aS'hsa:374659'
p539
aS'hsa:377841'
p540
aS'hsa:390877'
p541
aS'hsa:471'
p542
aS'hsa:4830'
p543
aS'hsa:4831'
p544
aS'hsa:4832'
p545
aS'hsa:4833'
p546
aS'hsa:4860'
p547
aS'hsa:4881'
p548
aS'hsa:4882'
p549
aS'hsa:4907'
p550
aS'hsa:50484'
p551
aS'hsa:50808'
p552
aS'hsa:50940'
p553
aS'hsa:51082'
p554
aS'hsa:51251'
p555
aS'hsa:51292'
p556
aS'hsa:5136'
p557
aS'hsa:5137'
p558
aS'hsa:5138'
p559
aS'hsa:5139'
p560
aS'hsa:5140'
p561
aS'hsa:5141'
p562
aS'hsa:5142'
p563
aS'hsa:5143'
p564
aS'hsa:5144'
p565
aS'hsa:5145'
p566
aS'hsa:5146'
p567
aS'hsa:5147'
p568
aS'hsa:5148'
p569
aS'hsa:5149'
p570
aS'hsa:5150'
p571
aS'hsa:5151'
p572
aS'hsa:5152'
p573
aS'hsa:5153'
p574
aS'hsa:5158'
p575
aS'hsa:5167'
p576
aS'hsa:5169'
p577
aS'hsa:51728'
p578
aS'hsa:51816'
p579
aS'hsa:5198'
p580
aS'hsa:53343'
p581
aS'hsa:54107'
p582
aS'hsa:5422'
p583
aS'hsa:5424'
p584
aS'hsa:5425'
p585
aS'hsa:5426'
p586
aS'hsa:5427'
p587
aS'hsa:5430'
p588
aS'hsa:5431'
p589
aS'hsa:5432'
p590
aS'hsa:5433'
p591
aS'hsa:5434'
p592
aS'hsa:5435'
p593
aS'hsa:5436'
p594
aS'hsa:5437'
p595
aS'hsa:5438'
p596
aS'hsa:5439'
p597
aS'hsa:5440'
p598
aS'hsa:5441'
p599
aS'hsa:5471'
p600
aS'hsa:548644'
p601
aS'hsa:5557'
p602
aS'hsa:5558'
p603
aS'hsa:55703'
p604
aS'hsa:55718'
p605
aS'hsa:55811'
p606
aS'hsa:55821'
p607
aS'hsa:56655'
p608
aS'hsa:56953'
p609
aS'hsa:56985'
p610
aS'hsa:57804'
p611
aS'hsa:58497'
p612
aS'hsa:6240'
p613
aS'hsa:6241'
p614
aS'hsa:64425'
p615
aS'hsa:646625'
p616
aS'hsa:654364'
p617
aS'hsa:661'
p618
aS'hsa:7498'
p619
aS'hsa:84172'
p620
aS'hsa:84265'
p621
aS'hsa:84284'
p622
aS'hsa:84618'
p623
aS'hsa:8622'
p624
aS'hsa:8654'
p625
aS'hsa:87178'
p626
aS'hsa:8833'
p627
aS'hsa:9060'
p628
aS'hsa:9061'
p629
aS'hsa:93034'
p630
aS'hsa:953'
p631
aS'hsa:9533'
p632
aS'hsa:954'
p633
aS'hsa:955'
p634
aS'hsa:956'
p635
aS'hsa:957'
p636
aS'hsa:9583'
p637
aS'hsa:9615'
p638
aS'hsa:10'
p639
aS'hsa:1548'
p640
aS'hsa:9'
p641
aS'hsa:129607'
p642
aS'hsa:139596'
p643
aS'hsa:1503'
p644
aS'hsa:151531'
p645
aS'hsa:1635'
p646
aS'hsa:1723'
p647
aS'hsa:1806'
p648
aS'hsa:1807'
p649
aS'hsa:1841'
p650
aS'hsa:1854'
p651
aS'hsa:1890'
p652
aS'hsa:51727'
p653
aS'hsa:51733'
p654
aS'hsa:54963'
p655
aS'hsa:56474'
p656
aS'hsa:7083'
p657
aS'hsa:7084'
p658
aS'hsa:7298'
p659
aS'hsa:7371'
p660
aS'hsa:7372'
p661
aS'hsa:7378'
p662
aS'hsa:790'
p663
aS'hsa:79077'
p664
aS'hsa:83549'
p665
aS'hsa:978'
p666
aS'hsa:18'
p667
aS'hsa:189'
p668
aS'hsa:2346'
p669
aS'hsa:2571'
p670
aS'hsa:2572'
p671
aS'hsa:259307'
p672
aS'hsa:2673'
p673
aS'hsa:284716'
p674
aS'hsa:339983'
p675
aS'hsa:440'
p676
aS'hsa:443'
p677
aS'hsa:56954'
p678
aS'hsa:57494'
p679
aS'hsa:64902'
p680
aS'hsa:7915'
p681
aS'hsa:8528'
p682
aS'hsa:8659'
p683
aS'hsa:9945'
p684
aS'hsa:102724560'
p685
aS'hsa:10993'
p686
aS'hsa:113675'
p687
aS'hsa:1491'
p688
aS'hsa:1610'
p689
aS'hsa:1757'
p690
aS'hsa:211'
p691
aS'hsa:212'
p692
aS'hsa:23464'
p693
aS'hsa:2593'
p694
aS'hsa:26227'
p695
aS'hsa:2628'
p696
aS'hsa:2653'
p697
aS'hsa:27232'
p698
aS'hsa:2731'
p699
aS'hsa:275'
p700
aS'hsa:29958'
p701
aS'hsa:29968'
p702
aS'hsa:314'
p703
aS'hsa:4128'
p704
aS'hsa:4129'
p705
aS'hsa:51268'
p706
aS'hsa:55349'
p707
aS'hsa:5723'
p708
aS'hsa:635'
p709
aS'hsa:63826'
p710
aS'hsa:6470'
p711
aS'hsa:6472'
p712
aS'hsa:8639'
p713
aS'hsa:875'
p714
aS'hsa:9380'
p715
aS'hsa:1036'
p716
aS'hsa:10768'
p717
aS'hsa:1786'
p718
aS'hsa:1788'
p719
aS'hsa:1789'
p720
aS'hsa:191'
p721
aS'hsa:23382'
p722
aS'hsa:23743'
p723
aS'hsa:262'
p724
aS'hsa:2729'
p725
aS'hsa:2730'
p726
aS'hsa:27430'
p727
aS'hsa:2937'
p728
aS'hsa:4143'
p729
aS'hsa:4144'
p730
aS'hsa:4357'
p731
aS'hsa:4507'
p732
aS'hsa:4548'
p733
aS'hsa:51074'
p734
aS'hsa:55256'
p735
aS'hsa:58478'
p736
aS'hsa:586'
p737
aS'hsa:587'
p738
aS'hsa:6611'
p739
aS'hsa:6723'
p740
aS'hsa:7263'
p741
aS'hsa:84245'
p742
aS'hsa:11112'
p743
aS'hsa:1629'
p744
aS'hsa:197322'
p745
aS'hsa:26275'
p746
aS'hsa:27034'
p747
aS'hsa:3028'
p748
aS'hsa:316'
p749
aS'hsa:3712'
p750
aS'hsa:4329'
p751
aS'hsa:4594'
p752
aS'hsa:5095'
p753
aS'hsa:5096'
p754
aS'hsa:549'
p755
aS'hsa:56922'
p756
aS'hsa:593'
p757
aS'hsa:594'
p758
aS'hsa:64087'
p759
aS'hsa:65985'
p760
aS'hsa:84693'
p761
aS'hsa:10157'
p762
aS'hsa:10919'
p763
aS'hsa:11105'
p764
aS'hsa:123688'
p765
aS'hsa:2145'
p766
aS'hsa:2146'
p767
aS'hsa:23067'
p768
aS'hsa:23127'
p769
aS'hsa:29072'
p770
aS'hsa:387893'
p771
aS'hsa:4297'
p772
aS'hsa:51111'
p773
aS'hsa:51166'
p774
aS'hsa:5351'
p775
aS'hsa:5352'
p776
aS'hsa:54904'
p777
aS'hsa:55217'
p778
aS'hsa:55870'
p779
aS'hsa:55904'
p780
aS'hsa:56979'
p781
aS'hsa:58508'
p782
aS'hsa:6419'
p783
aS'hsa:64324'
p784
aS'hsa:6839'
p785
aS'hsa:7468'
p786
aS'hsa:7799'
p787
aS'hsa:79709'
p788
aS'hsa:79723'
p789
aS'hsa:79813'
p790
aS'hsa:79823'
p791
aS'hsa:8085'
p792
aS'hsa:80854'
p793
aS'hsa:83852'
p794
aS'hsa:84193'
p795
aS'hsa:8424'
p796
aS'hsa:84444'
p797
aS'hsa:84787'
p798
aS'hsa:85007'
p799
aS'hsa:8985'
p800
aS'hsa:93166'
p801
aS'hsa:9739'
p802
aS'hsa:9757'
p803
aS'hsa:9869'
p804
aS'hsa:102724788'
p805
aS'hsa:112483'
p806
aS'hsa:112817'
p807
aS'hsa:112849'
p808
aS'hsa:113451'
p809
aS'hsa:1152'
p810
aS'hsa:1158'
p811
aS'hsa:1159'
p812
aS'hsa:1160'
p813
aS'hsa:26'
p814
aS'hsa:283208'
p815
aS'hsa:29920'
p816
aS'hsa:4942'
p817
aS'hsa:4953'
p818
aS'hsa:5033'
p819
aS'hsa:51056'
p820
aS'hsa:54498'
p821
aS'hsa:548596'
p822
aS'hsa:55748'
p823
aS'hsa:5625'
p824
aS'hsa:57571'
p825
aS'hsa:5831'
p826
aS'hsa:5832'
p827
aS'hsa:58510'
p828
aS'hsa:6303'
p829
aS'hsa:65263'
p830
aS'hsa:79814'
p831
aS'hsa:84735'
p832
aS'hsa:8974'
p833
aS'hsa:10841'
p834
aS'hsa:131669'
p835
aS'hsa:138199'
p836
aS'hsa:144193'
p837
aS'hsa:1644'
p838
aS'hsa:3034'
p839
aS'hsa:3067'
p840
aS'hsa:3176'
p841
aS'hsa:1621'
p842
aS'hsa:1638'
p843
aS'hsa:2184'
p844
aS'hsa:2954'
p845
aS'hsa:3081'
p846
aS'hsa:4282'
p847
aS'hsa:5409'
p848
aS'hsa:7054'
p849
aS'hsa:7173'
p850
aS'hsa:7299'
p851
aS'hsa:7306'
p852
aS'hsa:81889'
p853
aS'hsa:10249'
p854
aS'hsa:5053'
p855
aS'hsa:11185'
p856
aS'hsa:121278'
p857
aS'hsa:125061'
p858
aS'hsa:130013'
p859
aS'hsa:15'
p860
aS'hsa:169355'
p861
aS'hsa:23498'
p862
aS'hsa:3620'
p863
aS'hsa:438'
p864
aS'hsa:56267'
p865
aS'hsa:6999'
p866
aS'hsa:7166'
p867
aS'hsa:847'
p868
aS'hsa:8564'
p869
aS'hsa:883'
p870
aS'hsa:8942'
p871
aS'hsa:23417'
p872
aS'hsa:339896'
p873
aS'hsa:124975'
p874
aS'hsa:2678'
p875
aS'hsa:2686'
p876
aS'hsa:2687'
p877
aS'hsa:51380'
p878
aS'hsa:84890'
p879
aS'hsa:10390'
p880
aS'hsa:5130'
p881
aS'hsa:56994'
p882
aS'hsa:5833'
p883
aS'hsa:85465'
p884
aS'hsa:9468'
p885
aS'hsa:10587'
p886
aS'hsa:114112'
p887
aS'hsa:118672'
p888
aS'hsa:22928'
p889
aS'hsa:22929'
p890
aS'hsa:4141'
p891
aS'hsa:51091'
p892
aS'hsa:51540'
p893
aS'hsa:7296'
p894
aS'hsa:92935'
p895
aS'hsa:119391'
p896
aS'hsa:221357'
p897
aS'hsa:257202'
p898
aS'hsa:26873'
p899
aS'hsa:27306'
p900
aS'hsa:2876'
p901
aS'hsa:2877'
p902
aS'hsa:2878'
p903
aS'hsa:2879'
p904
aS'hsa:2880'
p905
aS'hsa:2882'
p906
aS'hsa:290'
p907
aS'hsa:2936'
p908
aS'hsa:2938'
p909
aS'hsa:2939'
p910
aS'hsa:2940'
p911
aS'hsa:2941'
p912
aS'hsa:2944'
p913
aS'hsa:2946'
p914
aS'hsa:2947'
p915
aS'hsa:2948'
p916
aS'hsa:2949'
p917
aS'hsa:2950'
p918
aS'hsa:2952'
p919
aS'hsa:2953'
p920
aS'hsa:373156'
p921
aS'hsa:4257'
p922
aS'hsa:4258'
p923
aS'hsa:4259'
p924
aS'hsa:493869'
p925
aS'hsa:51060'
p926
aS'hsa:51471'
p927
aS'hsa:653689'
p928
aS'hsa:79017'
p929
aS'hsa:9027'
p930
aS'hsa:9446'
p931
aS'hsa:11181'
p932
aS'hsa:178'
p933
aS'hsa:2632'
p934
aS'hsa:276'
p935
aS'hsa:277'
p936
aS'hsa:278'
p937
aS'hsa:279'
p938
aS'hsa:280'
p939
aS'hsa:283209'
p940
aS'hsa:2992'
p941
aS'hsa:2997'
p942
aS'hsa:2998'
p943
aS'hsa:57733'
p944
aS'hsa:5834'
p945
aS'hsa:5836'
p946
aS'hsa:5837'
p947
aS'hsa:8908'
p948
aS'hsa:10195'
p949
aS'hsa:10905'
p950
aS'hsa:11253'
p951
aS'hsa:11282'
p952
aS'hsa:11320'
p953
aS'hsa:144245'
p954
aS'hsa:146664'
p955
aS'hsa:152586'
p956
aS'hsa:1603'
p957
aS'hsa:1650'
p958
aS'hsa:1798'
p959
aS'hsa:199857'
p960
aS'hsa:201595'
p961
aS'hsa:22845'
p962
aS'hsa:23193'
p963
aS'hsa:2530'
p964
aS'hsa:25834'
p965
aS'hsa:29880'
p966
aS'hsa:29929'
p967
aS'hsa:3703'
p968
aS'hsa:4121'
p969
aS'hsa:4122'
p970
aS'hsa:4124'
p971
aS'hsa:4245'
p972
aS'hsa:4247'
p973
aS'hsa:4248'
p974
aS'hsa:4249'
p975
aS'hsa:440138'
p976
aS'hsa:54344'
p977
aS'hsa:56052'
p978
aS'hsa:57134'
p979
aS'hsa:57171'
p980
aS'hsa:6184'
p981
aS'hsa:6185'
p982
aS'hsa:6480'
p983
aS'hsa:7841'
p984
aS'hsa:79053'
p985
aS'hsa:79087'
p986
aS'hsa:79796'
p987
aS'hsa:79868'
p988
aS'hsa:7991'
p989
aS'hsa:84620'
p990
aS'hsa:84920'
p991
aS'hsa:85365'
p992
aS'hsa:8703'
p993
aS'hsa:8813'
p994
aS'hsa:8818'
p995
aS'hsa:10825'
p996
aS'hsa:129807'
p997
aS'hsa:175'
p998
aS'hsa:23324'
p999
aS'hsa:2517'
p1000
aS'hsa:2519'
p1001
aS'hsa:2629'
p1002
aS'hsa:284004'
p1003
aS'hsa:3073'
p1004
aS'hsa:3074'
p1005
aS'hsa:4123'
p1006
aS'hsa:4125'
p1007
aS'hsa:4126'
p1008
aS'hsa:4758'
p1009
aS'hsa:4759'
p1010
aS'hsa:57704'
p1011
aS'hsa:64772'
p1012
aS'hsa:100528030'
p1013
aS'hsa:11226'
p1014
aS'hsa:11227'
p1015
aS'hsa:114805'
p1016
aS'hsa:117248'
p1017
aS'hsa:168391'
p1018
aS'hsa:192134'
p1019
aS'hsa:2589'
p1020
aS'hsa:2590'
p1021
aS'hsa:2591'
p1022
aS'hsa:26290'
p1023
aS'hsa:2650'
p1024
aS'hsa:29071'
p1025
aS'hsa:374378'
p1026
aS'hsa:442117'
p1027
aS'hsa:50614'
p1028
aS'hsa:51301'
p1029
aS'hsa:51809'
p1030
aS'hsa:55568'
p1031
aS'hsa:55808'
p1032
aS'hsa:56913'
p1033
aS'hsa:57452'
p1034
aS'hsa:63917'
p1035
aS'hsa:64409'
p1036
aS'hsa:6482'
p1037
aS'hsa:6483'
p1038
aS'hsa:79623'
p1039
aS'hsa:79695'
p1040
aS'hsa:8693'
p1041
aS'hsa:9245'
p1042
aS'hsa:9334'
p1043
aS'hsa:10585'
p1044
aS'hsa:145173'
p1045
aS'hsa:23275'
p1046
aS'hsa:23509'
p1047
aS'hsa:283464'
p1048
aS'hsa:285203'
p1049
aS'hsa:29954'
p1050
aS'hsa:3955'
p1051
aS'hsa:4242'
p1052
aS'hsa:56983'
p1053
aS'hsa:5986'
p1054
aS'hsa:6487'
p1055
aS'hsa:727936'
p1056
aS'hsa:8473'
p1057
aS'hsa:10329'
p1058
aS'hsa:10690'
p1059
aS'hsa:11041'
p1060
aS'hsa:120071'
p1061
aS'hsa:135152'
p1062
aS'hsa:148789'
p1063
aS'hsa:2218'
p1064
aS'hsa:2526'
p1065
aS'hsa:27087'
p1066
aS'hsa:55624'
p1067
aS'hsa:79147'
p1068
aS'hsa:84197'
p1069
aS'hsa:84892'
p1070
aS'hsa:9215'
p1071
aS'hsa:9486'
p1072
aS'hsa:10007'
p1073
aS'hsa:10020'
p1074
aS'hsa:1118'
p1075
aS'hsa:132789'
p1076
aS'hsa:140838'
p1077
aS'hsa:1727'
p1078
aS'hsa:27159'
p1079
aS'hsa:51005'
p1080
aS'hsa:51167'
p1081
aS'hsa:51700'
p1082
aS'hsa:51706'
p1083
aS'hsa:5238'
p1084
aS'hsa:54187'
p1085
aS'hsa:55577'
p1086
aS'hsa:55907'
p1087
aS'hsa:5973'
p1088
aS'hsa:606495'
p1089
aS'hsa:64841'
p1090
aS'hsa:6675'
p1091
aS'hsa:80146'
p1092
aS'hsa:80896'
p1093
aS'hsa:91373'
p1094
aS'hsa:10855'
p1095
aS'hsa:138050'
p1096
aS'hsa:23553'
p1097
aS'hsa:2588'
p1098
aS'hsa:2799'
p1099
aS'hsa:3373'
p1100
aS'hsa:3423'
p1101
aS'hsa:3425'
p1102
aS'hsa:411'
p1103
aS'hsa:4669'
p1104
aS'hsa:60495'
p1105
aS'hsa:6448'
p1106
aS'hsa:6677'
p1107
aS'hsa:8372'
p1108
aS'hsa:8692'
p1109
aS'hsa:10090'
p1110
aS'hsa:11285'
p1111
aS'hsa:113189'
p1112
aS'hsa:126792'
p1113
aS'hsa:166012'
p1114
aS'hsa:22856'
p1115
aS'hsa:26229'
p1116
aS'hsa:29940'
p1117
aS'hsa:337876'
p1118
aS'hsa:50515'
p1119
aS'hsa:51363'
p1120
aS'hsa:54480'
p1121
aS'hsa:55454'
p1122
aS'hsa:55501'
p1123
aS'hsa:55790'
p1124
aS'hsa:56548'
p1125
aS'hsa:64131'
p1126
aS'hsa:64132'
p1127
aS'hsa:79586'
p1128
aS'hsa:9469'
p1129
aS'hsa:10164'
p1130
aS'hsa:10678'
p1131
aS'hsa:4166'
p1132
aS'hsa:8534'
p1133
aS'hsa:8702'
p1134
aS'hsa:93010'
p1135
aS'hsa:9435'
p1136
aS'hsa:2131'
p1137
aS'hsa:2132'
p1138
aS'hsa:2134'
p1139
aS'hsa:2135'
p1140
aS'hsa:2137'
p1141
aS'hsa:222537'
p1142
aS'hsa:26035'
p1143
aS'hsa:266722'
p1144
aS'hsa:3340'
p1145
aS'hsa:64579'
p1146
aS'hsa:8509'
p1147
aS'hsa:90161'
p1148
aS'hsa:9348'
p1149
aS'hsa:9394'
p1150
aS'hsa:9653'
p1151
aS'hsa:9953'
p1152
aS'hsa:9955'
p1153
aS'hsa:9956'
p1154
aS'hsa:9957'
p1155
aS'hsa:10554'
p1156
aS'hsa:10555'
p1157
aS'hsa:11343'
p1158
aS'hsa:116255'
p1159
aS'hsa:119548'
p1160
aS'hsa:129642'
p1161
aS'hsa:137964'
p1162
aS'hsa:139189'
p1163
aS'hsa:150763'
p1164
aS'hsa:154141'
p1165
aS'hsa:1606'
p1166
aS'hsa:1607'
p1167
aS'hsa:1608'
p1168
aS'hsa:160851'
p1169
aS'hsa:1609'
p1170
aS'hsa:196051'
p1171
aS'hsa:23175'
p1172
aS'hsa:253558'
p1173
aS'hsa:2710'
p1174
aS'hsa:2712'
p1175
aS'hsa:346606'
p1176
aS'hsa:3990'
p1177
aS'hsa:4023'
p1178
aS'hsa:5406'
p1179
aS'hsa:5407'
p1180
aS'hsa:5408'
p1181
aS'hsa:55326'
p1182
aS'hsa:55750'
p1183
aS'hsa:56894'
p1184
aS'hsa:56895'
p1185
aS'hsa:57104'
p1186
aS'hsa:57678'
p1187
aS'hsa:64900'
p1188
aS'hsa:80168'
p1189
aS'hsa:80339'
p1190
aS'hsa:84513'
p1191
aS'hsa:84649'
p1192
aS'hsa:84803'
p1193
aS'hsa:8513'
p1194
aS'hsa:8525'
p1195
aS'hsa:8526'
p1196
aS'hsa:8527'
p1197
aS'hsa:8611'
p1198
aS'hsa:8612'
p1199
aS'hsa:8613'
p1200
aS'hsa:8694'
p1201
aS'hsa:9162'
p1202
aS'hsa:9388'
p1203
aS'hsa:9663'
p1204
aS'hsa:10423'
p1205
aS'hsa:113026'
p1206
aS'hsa:138429'
p1207
aS'hsa:200576'
p1208
aS'hsa:22876'
p1209
aS'hsa:22908'
p1210
aS'hsa:23007'
p1211
aS'hsa:23236'
p1212
aS'hsa:23396'
p1213
aS'hsa:253430'
p1214
aS'hsa:27124'
p1215
aS'hsa:3612'
p1216
aS'hsa:3613'
p1217
aS'hsa:3628'
p1218
aS'hsa:3631'
p1219
aS'hsa:3632'
p1220
aS'hsa:3633'
p1221
aS'hsa:3635'
p1222
aS'hsa:3636'
p1223
aS'hsa:3705'
p1224
aS'hsa:3706'
p1225
aS'hsa:3707'
p1226
aS'hsa:4534'
p1227
aS'hsa:4952'
p1228
aS'hsa:51196'
p1229
aS'hsa:51477'
p1230
aS'hsa:51763'
p1231
aS'hsa:5286'
p1232
aS'hsa:5287'
p1233
aS'hsa:5288'
p1234
aS'hsa:5289'
p1235
aS'hsa:5290'
p1236
aS'hsa:5291'
p1237
aS'hsa:5293'
p1238
aS'hsa:5294'
p1239
aS'hsa:5297'
p1240
aS'hsa:5298'
p1241
aS'hsa:5305'
p1242
aS'hsa:5330'
p1243
aS'hsa:5331'
p1244
aS'hsa:5332'
p1245
aS'hsa:5333'
p1246
aS'hsa:5335'
p1247
aS'hsa:5336'
p1248
aS'hsa:54928'
p1249
aS'hsa:55300'
p1250
aS'hsa:55361'
p1251
aS'hsa:55613'
p1252
aS'hsa:56623'
p1253
aS'hsa:5728'
p1254
aS'hsa:64419'
p1255
aS'hsa:64768'
p1256
aS'hsa:79837'
p1257
aS'hsa:80271'
p1258
aS'hsa:8394'
p1259
aS'hsa:8395'
p1260
aS'hsa:8396'
p1261
aS'hsa:84812'
p1262
aS'hsa:8776'
p1263
aS'hsa:8821'
p1264
aS'hsa:8867'
p1265
aS'hsa:8871'
p1266
aS'hsa:8897'
p1267
aS'hsa:8898'
p1268
aS'hsa:89869'
p1269
aS'hsa:9107'
p1270
aS'hsa:9108'
p1271
aS'hsa:9110'
p1272
aS'hsa:9651'
p1273
aS'hsa:10026'
p1274
aS'hsa:128869'
p1275
aS'hsa:23556'
p1276
aS'hsa:2822'
p1277
aS'hsa:284098'
p1278
aS'hsa:51227'
p1279
aS'hsa:51604'
p1280
aS'hsa:5277'
p1281
aS'hsa:5279'
p1282
aS'hsa:5281'
p1283
aS'hsa:5283'
p1284
aS'hsa:54872'
p1285
aS'hsa:54965'
p1286
aS'hsa:55650'
p1287
aS'hsa:80055'
p1288
aS'hsa:80235'
p1289
aS'hsa:84720'
p1290
aS'hsa:84992'
p1291
aS'hsa:8733'
p1292
aS'hsa:9091'
p1293
aS'hsa:93183'
p1294
aS'hsa:94005'
p1295
aS'hsa:9487'
p1296
aS'hsa:9488'
p1297
aS'hsa:100137049'
p1298
aS'hsa:10162'
p1299
aS'hsa:1040'
p1300
aS'hsa:10400'
p1301
aS'hsa:10434'
p1302
aS'hsa:10908'
p1303
aS'hsa:1103'
p1304
aS'hsa:11145'
p1305
aS'hsa:1119'
p1306
aS'hsa:1120'
p1307
aS'hsa:11313'
p1308
aS'hsa:122618'
p1309
aS'hsa:123745'
p1310
aS'hsa:151056'
p1311
aS'hsa:162466'
p1312
aS'hsa:23171'
p1313
aS'hsa:23646'
p1314
aS'hsa:23659'
p1315
aS'hsa:23761'
p1316
aS'hsa:254531'
p1317
aS'hsa:255189'
p1318
aS'hsa:26279'
p1319
aS'hsa:2819'
p1320
aS'hsa:2820'
p1321
aS'hsa:283748'
p1322
aS'hsa:30814'
p1323
aS'hsa:375775'
p1324
aS'hsa:391013'
p1325
aS'hsa:3931'
p1326
aS'hsa:43'
p1327
aS'hsa:50487'
p1328
aS'hsa:5319'
p1329
aS'hsa:5320'
p1330
aS'hsa:5321'
p1331
aS'hsa:5322'
p1332
aS'hsa:5337'
p1333
aS'hsa:5338'
p1334
aS'hsa:54675'
p1335
aS'hsa:54947'
p1336
aS'hsa:55224'
p1337
aS'hsa:55500'
p1338
aS'hsa:56261'
p1339
aS'hsa:64600'
p1340
aS'hsa:64850'
p1341
aS'hsa:6901'
p1342
aS'hsa:79143'
p1343
aS'hsa:79888'
p1344
aS'hsa:81490'
p1345
aS'hsa:81579'
p1346
aS'hsa:8398'
p1347
aS'hsa:8399'
p1348
aS'hsa:8443'
p1349
aS'hsa:84647'
p1350
aS'hsa:8605'
p1351
aS'hsa:8681'
p1352
aS'hsa:8760'
p1353
aS'hsa:9489'
p1354
aS'hsa:9791'
p1355
aS'hsa:9926'
p1356
aS'hsa:133121'
p1357
aS'hsa:255043'
p1358
aS'hsa:5048'
p1359
aS'hsa:5049'
p1360
aS'hsa:5050'
p1361
aS'hsa:5051'
p1362
aS'hsa:5168'
p1363
aS'hsa:7368'
p1364
aS'hsa:7941'
p1365
aS'hsa:8540'
p1366
aS'hsa:9514'
p1367
aS'hsa:10728'
p1368
aS'hsa:11283'
p1369
aS'hsa:113612'
p1370
aS'hsa:127281'
p1371
aS'hsa:1555'
p1372
aS'hsa:1557'
p1373
aS'hsa:1558'
p1374
aS'hsa:1559'
p1375
aS'hsa:1573'
p1376
aS'hsa:2053'
p1377
aS'hsa:239'
p1378
aS'hsa:240'
p1379
aS'hsa:242'
p1380
aS'hsa:246'
p1381
aS'hsa:247'
p1382
aS'hsa:4048'
p1383
aS'hsa:4051'
p1384
aS'hsa:4056'
p1385
aS'hsa:5730'
p1386
aS'hsa:5740'
p1387
aS'hsa:5742'
p1388
aS'hsa:5743'
p1389
aS'hsa:6916'
p1390
aS'hsa:80142'
p1391
aS'hsa:8529'
p1392
aS'hsa:873'
p1393
aS'hsa:874'
p1394
aS'hsa:9536'
p1395
aS'hsa:9415'
p1396
aS'hsa:10558'
p1397
aS'hsa:10715'
p1398
aS'hsa:123099'
p1399
aS'hsa:125981'
p1400
aS'hsa:130367'
p1401
aS'hsa:166929'
p1402
aS'hsa:204219'
p1403
aS'hsa:2531'
p1404
aS'hsa:253782'
p1405
aS'hsa:2581'
p1406
aS'hsa:259230'
p1407
aS'hsa:29956'
p1408
aS'hsa:339221'
p1409
aS'hsa:340485'
p1410
aS'hsa:410'
p1411
aS'hsa:427'
p1412
aS'hsa:55304'
p1413
aS'hsa:55331'
p1414
aS'hsa:55512'
p1415
aS'hsa:55627'
p1416
aS'hsa:56624'
p1417
aS'hsa:56848'
p1418
aS'hsa:64781'
p1419
aS'hsa:6609'
p1420
aS'hsa:6610'
p1421
aS'hsa:7357'
p1422
aS'hsa:79603'
p1423
aS'hsa:81537'
p1424
aS'hsa:8560'
p1425
aS'hsa:8877'
p1426
aS'hsa:8879'
p1427
aS'hsa:91012'
p1428
aS'hsa:9331'
p1429
aS'hsa:9517'
p1430
aS'hsa:10317'
p1431
aS'hsa:10331'
p1432
aS'hsa:10402'
p1433
aS'hsa:2523'
p1434
aS'hsa:2524'
p1435
aS'hsa:2525'
p1436
aS'hsa:2527'
p1437
aS'hsa:2528'
p1438
aS'hsa:2529'
p1439
aS'hsa:2651'
p1440
aS'hsa:28'
p1441
aS'hsa:53947'
p1442
aS'hsa:6484'
p1443
aS'hsa:6489'
p1444
aS'hsa:79369'
p1445
aS'hsa:84002'
p1446
aS'hsa:8706'
p1447
aS'hsa:8707'
p1448
aS'hsa:8708'
p1449
aS'hsa:127550'
p1450
aS'hsa:26301'
p1451
aS'hsa:4668'
p1452
aS'hsa:256435'
p1453
aS'hsa:2583'
p1454
aS'hsa:27090'
p1455
aS'hsa:29906'
p1456
aS'hsa:30815'
p1457
aS'hsa:81849'
p1458
aS'hsa:8705'
p1459
aS'hsa:8869'
p1460
aS'hsa:9197'
p1461
aS'hsa:10873'
p1462
aS'hsa:134526'
p1463
aS'hsa:197257'
p1464
aS'hsa:2739'
p1465
aS'hsa:3029'
p1466
aS'hsa:4199'
p1467
aS'hsa:4200'
p1468
aS'hsa:97'
p1469
aS'hsa:98'
p1470
aS'hsa:283871'
p1471
aS'hsa:51179'
p1472
aS'hsa:54363'
p1473
aS'hsa:81888'
p1474
aS'hsa:55862'
p1475
aS'hsa:79611'
p1476
aS'hsa:116285'
p1477
aS'hsa:123876'
p1478
aS'hsa:142827'
p1479
aS'hsa:341392'
p1480
aS'hsa:348158'
p1481
aS'hsa:54988'
p1482
aS'hsa:6296'
p1483
aS'hsa:79944'
p1484
aS'hsa:100528021'
p1485
aS'hsa:10588'
p1486
aS'hsa:10797'
p1487
aS'hsa:10840'
p1488
aS'hsa:123263'
p1489
aS'hsa:160428'
p1490
aS'hsa:1719'
p1491
aS'hsa:200895'
p1492
aS'hsa:25902'
p1493
aS'hsa:441024'
p1494
aS'hsa:4522'
p1495
aS'hsa:4524'
p1496
aS'hsa:248'
p1497
aS'hsa:249'
p1498
aS'hsa:250'
p1499
aS'hsa:251'
p1500
aS'hsa:27010'
p1501
aS'hsa:52'
p1502
aS'hsa:79178'
p1503
aS'hsa:9054'
p1504
aS'hsa:53'
p1505
aS'hsa:54'
p1506
aS'hsa:55312'
p1507
aS'hsa:645'
p1508
aS'hsa:80308'
p1509
aS'hsa:493911'
p1510
aS'hsa:55163'
p1511
aS'hsa:57026'
p1512
aS'hsa:8566'
p1513
aS'hsa:10135'
p1514
aS'hsa:133686'
p1515
aS'hsa:23057'
p1516
aS'hsa:23475'
p1517
aS'hsa:23530'
p1518
aS'hsa:27231'
p1519
aS'hsa:349565'
p1520
aS'hsa:4837'
p1521
aS'hsa:54981'
p1522
aS'hsa:55191'
p1523
aS'hsa:64802'
p1524
aS'hsa:65220'
p1525
aS'hsa:683'
p1526
aS'hsa:83594'
p1527
aS'hsa:93100'
p1528
aS'hsa:952'
p1529
aS'hsa:53354'
p1530
aS'hsa:55229'
p1531
aS'hsa:60490'
p1532
aS'hsa:60496'
p1533
aS'hsa:79646'
p1534
aS'hsa:79717'
p1535
aS'hsa:80025'
p1536
aS'hsa:80347'
p1537
aS'hsa:8875'
p1538
aS'hsa:8876'
p1539
aS'hsa:3141'
p1540
aS'hsa:686'
p1541
aS'hsa:11019'
p1542
aS'hsa:387787'
p1543
aS'hsa:51601'
p1544
aS'hsa:10243'
p1545
aS'hsa:2356'
p1546
aS'hsa:2643'
p1547
aS'hsa:4337'
p1548
aS'hsa:4338'
p1549
aS'hsa:55034'
p1550
aS'hsa:5805'
p1551
aS'hsa:5860'
p1552
aS'hsa:6697'
p1553
aS'hsa:8836'
p1554
aS'hsa:10170'
p1555
aS'hsa:10901'
p1556
aS'hsa:145226'
p1557
aS'hsa:1562'
p1558
aS'hsa:157506'
p1559
aS'hsa:158835'
p1560
aS'hsa:1592'
p1561
aS'hsa:195814'
p1562
aS'hsa:216'
p1563
aS'hsa:29785'
p1564
aS'hsa:317749'
p1565
aS'hsa:340665'
p1566
aS'hsa:50700'
p1567
aS'hsa:51109'
p1568
aS'hsa:53630'
p1569
aS'hsa:54884'
p1570
aS'hsa:56603'
p1571
aS'hsa:5959'
p1572
aS'hsa:6121'
p1573
aS'hsa:728635'
p1574
aS'hsa:8228'
p1575
aS'hsa:8608'
p1576
aS'hsa:8854'
p1577
aS'hsa:9227'
p1578
aS'hsa:9249'
p1579
aS'hsa:124454'
p1580
aS'hsa:1356'
p1581
aS'hsa:1371'
p1582
aS'hsa:2058'
p1583
aS'hsa:210'
p1584
aS'hsa:2235'
p1585
aS'hsa:2395'
p1586
aS'hsa:3052'
p1587
aS'hsa:3145'
p1588
aS'hsa:3162'
p1589
aS'hsa:3163'
p1590
aS'hsa:326625'
p1591
aS'hsa:5498'
p1592
aS'hsa:644'
p1593
aS'hsa:7389'
p1594
aS'hsa:7390'
p1595
aS'hsa:9843'
p1596
aS'hsa:10269'
p1597
aS'hsa:10654'
p1598
aS'hsa:116150'
p1599
aS'hsa:2224'
p1600
aS'hsa:2339'
p1601
aS'hsa:2342'
p1602
aS'hsa:23463'
p1603
aS'hsa:23590'
p1604
aS'hsa:3156'
p1605
aS'hsa:3422'
p1606
aS'hsa:4597'
p1607
aS'hsa:4598'
p1608
aS'hsa:51449'
p1609
aS'hsa:57107'
p1610
aS'hsa:79947'
p1611
aS'hsa:91734'
p1612
aS'hsa:9453'
p1613
aS'hsa:9986'
p1614
aS'hsa:11238'
p1615
aS'hsa:23632'
p1616
aS'hsa:377677'
p1617
aS'hsa:759'
p1618
aS'hsa:760'
p1619
aS'hsa:761'
p1620
aS'hsa:762'
p1621
aS'hsa:763'
p1622
aS'hsa:765'
p1623
aS'hsa:766'
p1624
aS'hsa:767'
p1625
aS'hsa:768'
p1626
aS'hsa:771'
p1627
aS'hsa:10380'
p1628
aS'hsa:23474'
p1629
aS'hsa:54205'
p1630
aS'hsa:58472'
p1631
aS'hsa:6821'
p1632
aS'hsa:10056'
p1633
aS'hsa:10352'
p1634
aS'hsa:10667'
p1635
aS'hsa:123283'
p1636
aS'hsa:16'
p1637
aS'hsa:1615'
p1638
aS'hsa:2193'
p1639
aS'hsa:23395'
p1640
aS'hsa:23438'
p1641
aS'hsa:25973'
p1642
aS'hsa:2617'
p1643
aS'hsa:283459'
p1644
aS'hsa:3035'
p1645
aS'hsa:3376'
p1646
aS'hsa:3735'
p1647
aS'hsa:4511'
p1648
aS'hsa:4553'
p1649
aS'hsa:4555'
p1650
aS'hsa:4556'
p1651
aS'hsa:4558'
p1652
aS'hsa:4563'
p1653
aS'hsa:4564'
p1654
aS'hsa:4565'
p1655
aS'hsa:4566'
p1656
aS'hsa:4567'
p1657
aS'hsa:4568'
p1658
aS'hsa:4569'
p1659
aS'hsa:4570'
p1660
aS'hsa:4571'
p1661
aS'hsa:4572'
p1662
aS'hsa:4573'
p1663
aS'hsa:4574'
p1664
aS'hsa:4575'
p1665
aS'hsa:4576'
p1666
aS'hsa:4577'
p1667
aS'hsa:4578'
p1668
aS'hsa:4579'
p1669
aS'hsa:4677'
p1670
aS'hsa:51067'
p1671
aS'hsa:51520'
p1672
aS'hsa:5188'
p1673
aS'hsa:54938'
p1674
aS'hsa:55157'
p1675
aS'hsa:55278'
p1676
aS'hsa:55699'
p1677
aS'hsa:57038'
p1678
aS'hsa:57176'
p1679
aS'hsa:57505'
p1680
aS'hsa:5859'
p1681
aS'hsa:5917'
p1682
aS'hsa:6301'
p1683
aS'hsa:6897'
p1684
aS'hsa:7407'
p1685
aS'hsa:7453'
p1686
aS'hsa:79587'
p1687
aS'hsa:79731'
p1688
aS'hsa:80222'
p1689
aS'hsa:833'
p1690
aS'hsa:8565'
p1691
aS'hsa:107987478'
p1692
aS'hsa:1553'
p1693
aS'hsa:1565'
p1694
aS'hsa:1572'
p1695
aS'hsa:2052'
p1696
aS'hsa:22977'
p1697
aS'hsa:6822'
p1698
aS'hsa:8574'
p1699
aS'hsa:2326'
p1700
aS'hsa:2327'
p1701
aS'hsa:2328'
p1702
aS'hsa:2329'
p1703
aS'hsa:2330'
p1704
aS'hsa:1066'
p1705
aS'hsa:7172'
p1706
aS'hsa:8824'
p1707
aS'hsa:3992'
p1708
aS'hsa:55825'
p1709
aS'hsa:6319'
p1710
aS'hsa:79966'
p1711
aS'hsa:11086'
p1712
aS'hsa:11232'
p1713
aS'hsa:134147'
p1714
aS'hsa:283358'
p1715
aS'hsa:338707'
p1716
aS'hsa:3909'
p1717
aS'hsa:3911'
p1718
aS'hsa:5428'
p1719
aS'hsa:54802'
p1720
aS'hsa:5980'
p1721
aS'hsa:64377'
p1722
aS'hsa:66008'
p1723
aS'hsa:8050'
p1724
aS'hsa:83539'
p1725
aS'hsa:9588'
p1726
aS'hsa:2098'
p1727
aS'hsa:10000'
p1728
aS'hsa:10018'
p1729
aS'hsa:1950'
p1730
aS'hsa:1956'
p1731
aS'hsa:1977'
p1732
aS'hsa:1978'
p1733
aS'hsa:2064'
p1734
aS'hsa:2065'
p1735
aS'hsa:207'
p1736
aS'hsa:208'
p1737
aS'hsa:2247'
p1738
aS'hsa:2261'
p1739
aS'hsa:2263'
p1740
aS'hsa:2309'
p1741
aS'hsa:2475'
p1742
aS'hsa:253314'
p1743
aS'hsa:2549'
p1744
aS'hsa:25759'
p1745
aS'hsa:2621'
p1746
aS'hsa:2885'
p1747
aS'hsa:2932'
p1748
aS'hsa:3082'
p1749
aS'hsa:3084'
p1750
aS'hsa:3265'
p1751
aS'hsa:3479'
p1752
aS'hsa:3480'
p1753
aS'hsa:3569'
p1754
aS'hsa:3570'
p1755
aS'hsa:369'
p1756
aS'hsa:3716'
p1757
aS'hsa:3717'
p1758
aS'hsa:3791'
p1759
aS'hsa:3845'
p1760
aS'hsa:399694'
p1761
aS'hsa:4233'
p1762
aS'hsa:4763'
p1763
aS'hsa:4893'
p1764
aS'hsa:5154'
p1765
aS'hsa:5155'
p1766
aS'hsa:5156'
p1767
aS'hsa:5159'
p1768
aS'hsa:5295'
p1769
aS'hsa:5296'
p1770
aS'hsa:53358'
p1771
aS'hsa:5578'
p1772
aS'hsa:5579'
p1773
aS'hsa:558'
p1774
aS'hsa:5582'
p1775
aS'hsa:5594'
p1776
aS'hsa:5595'
p1777
aS'hsa:56034'
p1778
aS'hsa:5604'
p1779
aS'hsa:5605'
p1780
aS'hsa:572'
p1781
aS'hsa:581'
p1782
aS'hsa:5894'
p1783
aS'hsa:596'
p1784
aS'hsa:598'
p1785
aS'hsa:6194'
p1786
aS'hsa:6198'
p1787
aS'hsa:6199'
p1788
aS'hsa:6464'
p1789
aS'hsa:6654'
p1790
aS'hsa:6655'
p1791
aS'hsa:6714'
p1792
aS'hsa:673'
p1793
aS'hsa:6774'
p1794
aS'hsa:7039'
p1795
aS'hsa:7422'
p1796
aS'hsa:80310'
p1797
aS'hsa:8503'
p1798
aS'hsa:9470'
p1799
aS'hsa:9542'
p1800
aS'hsa:1019'
p1801
aS'hsa:1026'
p1802
aS'hsa:1027'
p1803
aS'hsa:1029'
p1804
aS'hsa:1031'
p1805
aS'hsa:10498'
p1806
aS'hsa:10683'
p1807
aS'hsa:1432'
p1808
aS'hsa:182'
p1809
aS'hsa:1839'
p1810
aS'hsa:1869'
p1811
aS'hsa:1870'
p1812
aS'hsa:1871'
p1813
aS'hsa:2099'
p1814
aS'hsa:2100'
p1815
aS'hsa:2353'
p1816
aS'hsa:2778'
p1817
aS'hsa:28514'
p1818
aS'hsa:2852'
p1819
aS'hsa:3714'
p1820
aS'hsa:3725'
p1821
aS'hsa:4193'
p1822
aS'hsa:4313'
p1823
aS'hsa:4318'
p1824
aS'hsa:4851'
p1825
aS'hsa:4853'
p1826
aS'hsa:4854'
p1827
aS'hsa:4855'
p1828
aS'hsa:54567'
p1829
aS'hsa:5469'
p1830
aS'hsa:5566'
p1831
aS'hsa:5567'
p1832
aS'hsa:5568'
p1833
aS'hsa:5599'
p1834
aS'hsa:5600'
p1835
aS'hsa:5601'
p1836
aS'hsa:5602'
p1837
aS'hsa:5603'
p1838
aS'hsa:5747'
p1839
aS'hsa:5925'
p1840
aS'hsa:595'
p1841
aS'hsa:6300'
p1842
aS'hsa:638'
p1843
aS'hsa:6667'
p1844
aS'hsa:7157'
p1845
aS'hsa:8202'
p1846
aS'hsa:8647'
p1847
aS'hsa:9611'
p1848
aS'hsa:10057'
p1849
aS'hsa:10257'
p1850
aS'hsa:113235'
p1851
aS'hsa:1147'
p1852
aS'hsa:1244'
p1853
aS'hsa:2348'
p1854
aS'hsa:2350'
p1855
aS'hsa:2352'
p1856
aS'hsa:3551'
p1857
aS'hsa:3553'
p1858
aS'hsa:390243'
p1859
aS'hsa:4363'
p1860
aS'hsa:4790'
p1861
aS'hsa:5970'
p1862
aS'hsa:6573'
p1863
aS'hsa:7124'
p1864
aS'hsa:8517'
p1865
aS'hsa:8714'
p1866
aS'hsa:9429'
p1867
aS'hsa:1317'
p1868
aS'hsa:2067'
p1869
aS'hsa:27113'
p1870
aS'hsa:2956'
p1871
aS'hsa:317'
p1872
aS'hsa:329'
p1873
aS'hsa:330'
p1874
aS'hsa:331'
p1875
aS'hsa:332'
p1876
aS'hsa:355'
p1877
aS'hsa:356'
p1878
aS'hsa:4217'
p1879
aS'hsa:4292'
p1880
aS'hsa:4436'
p1881
aS'hsa:4437'
p1882
aS'hsa:472'
p1883
aS'hsa:5170'
p1884
aS'hsa:5366'
p1885
aS'hsa:538'
p1886
aS'hsa:540'
p1887
aS'hsa:5429'
p1888
aS'hsa:578'
p1889
aS'hsa:637'
p1890
aS'hsa:672'
p1891
aS'hsa:7153'
p1892
aS'hsa:7155'
p1893
aS'hsa:7507'
p1894
aS'hsa:836'
p1895
aS'hsa:841'
p1896
aS'hsa:842'
p1897
aS'hsa:8772'
p1898
aS'hsa:10058'
p1899
aS'hsa:10060'
p1900
aS'hsa:10347'
p1901
aS'hsa:10349'
p1902
aS'hsa:10350'
p1903
aS'hsa:10351'
p1904
aS'hsa:105369239'
p1905
aS'hsa:1080'
p1906
aS'hsa:11194'
p1907
aS'hsa:154664'
p1908
aS'hsa:19'
p1909
aS'hsa:20'
p1910
aS'hsa:21'
p1911
aS'hsa:215'
p1912
aS'hsa:22'
p1913
aS'hsa:225'
p1914
aS'hsa:23456'
p1915
aS'hsa:23457'
p1916
aS'hsa:23460'
p1917
aS'hsa:23461'
p1918
aS'hsa:24'
p1919
aS'hsa:26154'
p1920
aS'hsa:340273'
p1921
aS'hsa:368'
p1922
aS'hsa:5243'
p1923
aS'hsa:5244'
p1924
aS'hsa:5825'
p1925
aS'hsa:5826'
p1926
aS'hsa:64137'
p1927
aS'hsa:64240'
p1928
aS'hsa:64241'
p1929
aS'hsa:6833'
p1930
aS'hsa:6890'
p1931
aS'hsa:6891'
p1932
aS'hsa:85320'
p1933
aS'hsa:89845'
p1934
aS'hsa:94160'
p1935
aS'hsa:9619'
p1936
aS'hsa:100169751'
p1937
aS'hsa:100169753'
p1938
aS'hsa:100169754'
p1939
aS'hsa:100169755'
p1940
aS'hsa:100169756'
p1941
aS'hsa:100169757'
p1942
aS'hsa:100169758'
p1943
aS'hsa:100169759'
p1944
aS'hsa:100169760'
p1945
aS'hsa:100169761'
p1946
aS'hsa:100169762'
p1947
aS'hsa:100169763'
p1948
aS'hsa:100169764'
p1949
aS'hsa:100169765'
p1950
aS'hsa:100169766'
p1951
aS'hsa:100169767'
p1952
aS'hsa:100169768'
p1953
aS'hsa:100288562'
p1954
aS'hsa:10171'
p1955
aS'hsa:101929601'
p1956
aS'hsa:101929627'
p1957
aS'hsa:101930111'
p1958
aS'hsa:10199'
p1959
aS'hsa:10248'
p1960
aS'hsa:10436'
p1961
aS'hsa:10482'
p1962
aS'hsa:10528'
p1963
aS'hsa:10556'
p1964
aS'hsa:10557'
p1965
aS'hsa:10607'
p1966
aS'hsa:10775'
p1967
aS'hsa:10799'
p1968
aS'hsa:10813'
p1969
aS'hsa:10885'
p1970
aS'hsa:10940'
p1971
aS'hsa:134430'
p1972
aS'hsa:138716'
p1973
aS'hsa:1457'
p1974
aS'hsa:1459'
p1975
aS'hsa:1460'
p1976
aS'hsa:166378'
p1977
aS'hsa:1736'
p1978
aS'hsa:2091'
p1979
aS'hsa:22803'
p1980
aS'hsa:23160'
p1981
aS'hsa:23195'
p1982
aS'hsa:23560'
p1983
aS'hsa:25996'
p1984
aS'hsa:26354'
p1985
aS'hsa:26851'
p1986
aS'hsa:27341'
p1987
aS'hsa:283106'
p1988
aS'hsa:28987'
p1989
aS'hsa:29102'
p1990
aS'hsa:29107'
p1991
aS'hsa:29889'
p1992
aS'hsa:3692'
p1993
aS'hsa:4549'
p1994
aS'hsa:4550'
p1995
aS'hsa:4809'
p1996
aS'hsa:4931'
p1997
aS'hsa:51068'
p1998
aS'hsa:51077'
p1999
aS'hsa:51096'
p2000
aS'hsa:51119'
p2001
aS'hsa:51367'
p2002
aS'hsa:51602'
p2003
aS'hsa:54433'
p2004
aS'hsa:54464'
p2005
aS'hsa:54552'
p2006
aS'hsa:54913'
p2007
aS'hsa:55127'
p2008
aS'hsa:55131'
p2009
aS'hsa:55226'
p2010
aS'hsa:55272'
p2011
aS'hsa:55341'
p2012
aS'hsa:55505'
p2013
aS'hsa:55651'
p2014
aS'hsa:55781'
p2015
aS'hsa:55813'
p2016
aS'hsa:55916'
p2017
aS'hsa:55998'
p2018
aS'hsa:56000'
p2019
aS'hsa:56001'
p2020
aS'hsa:57455'
p2021
aS'hsa:5822'
p2022
aS'hsa:5901'
p2023
aS'hsa:6023'
p2024
aS'hsa:643802'
p2025
aS'hsa:65083'
p2026
aS'hsa:6949'
p2027
aS'hsa:728343'
p2028
aS'hsa:7514'
p2029
aS'hsa:780851'
p2030
aS'hsa:780852'
p2031
aS'hsa:780853'
p2032
aS'hsa:79631'
p2033
aS'hsa:81691'
p2034
aS'hsa:83732'
p2035
aS'hsa:84128'
p2036
aS'hsa:84135'
p2037
aS'hsa:84916'
p2038
aS'hsa:92856'
p2039
aS'hsa:9724'
p2040
aS'hsa:9790'
p2041
aS'hsa:100526842'
p2042
aS'hsa:100529097'
p2043
aS'hsa:100529239'
p2044
aS'hsa:101929876'
p2045
aS'hsa:10573'
p2046
aS'hsa:11222'
p2047
aS'hsa:11224'
p2048
aS'hsa:124995'
p2049
aS'hsa:140032'
p2050
aS'hsa:140801'
p2051
aS'hsa:200916'
p2052
aS'hsa:2197'
p2053
aS'hsa:219927'
p2054
aS'hsa:23521'
p2055
aS'hsa:25873'
p2056
aS'hsa:28998'
p2057
aS'hsa:29074'
p2058
aS'hsa:29088'
p2059
aS'hsa:29093'
p2060
aS'hsa:3921'
p2061
aS'hsa:4736'
p2062
aS'hsa:51021'
p2063
aS'hsa:51023'
p2064
aS'hsa:51065'
p2065
aS'hsa:51069'
p2066
aS'hsa:51073'
p2067
aS'hsa:51081'
p2068
aS'hsa:51116'
p2069
aS'hsa:51121'
p2070
aS'hsa:51187'
p2071
aS'hsa:51263'
p2072
aS'hsa:51264'
p2073
aS'hsa:51318'
p2074
aS'hsa:51373'
p2075
aS'hsa:54460'
p2076
aS'hsa:54948'
p2077
aS'hsa:55052'
p2078
aS'hsa:55168'
p2079
aS'hsa:55173'
p2080
aS'hsa:6122'
p2081
aS'hsa:6123'
p2082
aS'hsa:6124'
p2083
aS'hsa:6125'
p2084
aS'hsa:6128'
p2085
aS'hsa:6129'
p2086
aS'hsa:6130'
p2087
aS'hsa:6132'
p2088
aS'hsa:6133'
p2089
aS'hsa:6134'
p2090
aS'hsa:6135'
p2091
aS'hsa:6136'
p2092
aS'hsa:6137'
p2093
aS'hsa:6138'
p2094
aS'hsa:6139'
p2095
aS'hsa:6141'
p2096
aS'hsa:6142'
p2097
aS'hsa:6143'
p2098
aS'hsa:6144'
p2099
aS'hsa:6146'
p2100
aS'hsa:6147'
p2101
aS'hsa:6150'
p2102
aS'hsa:6152'
p2103
aS'hsa:6154'
p2104
aS'hsa:6155'
p2105
aS'hsa:6156'
p2106
aS'hsa:6157'
p2107
aS'hsa:6158'
p2108
aS'hsa:6159'
p2109
aS'hsa:6160'
p2110
aS'hsa:6161'
p2111
aS'hsa:6164'
p2112
aS'hsa:6165'
p2113
aS'hsa:6166'
p2114
aS'hsa:6167'
p2115
aS'hsa:6168'
p2116
aS'hsa:6169'
p2117
aS'hsa:6170'
p2118
aS'hsa:6171'
p2119
aS'hsa:6173'
p2120
aS'hsa:6175'
p2121
aS'hsa:6176'
p2122
aS'hsa:6181'
p2123
aS'hsa:6182'
p2124
aS'hsa:6183'
p2125
aS'hsa:6187'
p2126
aS'hsa:6188'
p2127
aS'hsa:6189'
p2128
aS'hsa:6191'
p2129
aS'hsa:6192'
p2130
aS'hsa:6193'
p2131
aS'hsa:6201'
p2132
aS'hsa:6202'
p2133
aS'hsa:6203'
p2134
aS'hsa:6204'
p2135
aS'hsa:6205'
p2136
aS'hsa:6206'
p2137
aS'hsa:6207'
p2138
aS'hsa:6208'
p2139
aS'hsa:6209'
p2140
aS'hsa:6210'
p2141
aS'hsa:6217'
p2142
aS'hsa:6218'
p2143
aS'hsa:6222'
p2144
aS'hsa:6223'
p2145
aS'hsa:6224'
p2146
aS'hsa:6227'
p2147
aS'hsa:6228'
p2148
aS'hsa:6229'
p2149
aS'hsa:6230'
p2150
aS'hsa:6231'
p2151
aS'hsa:6232'
p2152
aS'hsa:6233'
p2153
aS'hsa:6234'
p2154
aS'hsa:6235'
p2155
aS'hsa:63875'
p2156
aS'hsa:63931'
p2157
aS'hsa:64928'
p2158
aS'hsa:64960'
p2159
aS'hsa:64963'
p2160
aS'hsa:64965'
p2161
aS'hsa:64968'
p2162
aS'hsa:64969'
p2163
aS'hsa:64979'
p2164
aS'hsa:64981'
p2165
aS'hsa:64983'
p2166
aS'hsa:65003'
p2167
aS'hsa:65005'
p2168
aS'hsa:65008'
p2169
aS'hsa:7311'
p2170
aS'hsa:79590'
p2171
aS'hsa:9045'
p2172
aS'hsa:9349'
p2173
aS'hsa:9553'
p2174
aS'hsa:9801'
p2175
aS'hsa:100101267'
p2176
aS'hsa:10073'
p2177
aS'hsa:10189'
p2178
aS'hsa:10209'
p2179
aS'hsa:10250'
p2180
aS'hsa:10284'
p2181
aS'hsa:10289'
p2182
aS'hsa:10419'
p2183
aS'hsa:10460'
p2184
aS'hsa:10605'
p2185
aS'hsa:10762'
p2186
aS'hsa:10921'
p2187
aS'hsa:11097'
p2188
aS'hsa:11102'
p2189
aS'hsa:11171'
p2190
aS'hsa:11218'
p2191
aS'hsa:11260'
p2192
aS'hsa:1207'
p2193
aS'hsa:129401'
p2194
aS'hsa:132430'
p2195
aS'hsa:140886'
p2196
aS'hsa:1915'
p2197
aS'hsa:1917'
p2198
aS'hsa:1964'
p2199
aS'hsa:1965'
p2200
aS'hsa:1967'
p2201
aS'hsa:1968'
p2202
aS'hsa:1973'
p2203
aS'hsa:1974'
p2204
aS'hsa:1975'
p2205
aS'hsa:1979'
p2206
aS'hsa:1981'
p2207
aS'hsa:1982'
p2208
aS'hsa:1983'
p2209
aS'hsa:22794'
p2210
aS'hsa:22916'
p2211
aS'hsa:22985'
p2212
aS'hsa:23165'
p2213
aS'hsa:23191'
p2214
aS'hsa:23225'
p2215
aS'hsa:23279'
p2216
aS'hsa:2332'
p2217
aS'hsa:23511'
p2218
aS'hsa:23636'
p2219
aS'hsa:25929'
p2220
aS'hsa:26019'
p2221
aS'hsa:26827'
p2222
aS'hsa:26986'
p2223
aS'hsa:26999'
p2224
aS'hsa:285190'
p2225
aS'hsa:340529'
p2226
aS'hsa:348995'
p2227
aS'hsa:3646'
p2228
aS'hsa:3837'
p2229
aS'hsa:387082'
p2230
aS'hsa:400966'
p2231
aS'hsa:4116'
p2232
aS'hsa:4686'
p2233
aS'hsa:4927'
p2234
aS'hsa:4928'
p2235
aS'hsa:5042'
p2236
aS'hsa:50628'
p2237
aS'hsa:51095'
p2238
aS'hsa:51808'
p2239
aS'hsa:53371'
p2240
aS'hsa:5411'
p2241
aS'hsa:54960'
p2242
aS'hsa:55110'
p2243
aS'hsa:55520'
p2244
aS'hsa:55706'
p2245
aS'hsa:55746'
p2246
aS'hsa:57122'
p2247
aS'hsa:57187'
p2248
aS'hsa:57510'
p2249
aS'hsa:5903'
p2250
aS'hsa:5905'
p2251
aS'hsa:59343'
p2252
aS'hsa:5976'
p2253
aS'hsa:60528'
p2254
aS'hsa:6396'
p2255
aS'hsa:645974'
p2256
aS'hsa:65109'
p2257
aS'hsa:65110'
p2258
aS'hsa:653489'
p2259
aS'hsa:6606'
p2260
aS'hsa:6607'
p2261
aS'hsa:6612'
p2262
aS'hsa:6613'
p2263
aS'hsa:7175'
p2264
aS'hsa:727851'
p2265
aS'hsa:728689'
p2266
aS'hsa:729857'
p2267
aS'hsa:7329'
p2268
aS'hsa:7341'
p2269
aS'hsa:79023'
p2270
aS'hsa:7919'
p2271
aS'hsa:79228'
p2272
aS'hsa:79760'
p2273
aS'hsa:79833'
p2274
aS'hsa:79897'
p2275
aS'hsa:79902'
p2276
aS'hsa:80145'
p2277
aS'hsa:8021'
p2278
aS'hsa:80336'
p2279
aS'hsa:8086'
p2280
aS'hsa:8087'
p2281
aS'hsa:81929'
p2282
aS'hsa:84220'
p2283
aS'hsa:84305'
p2284
aS'hsa:84321'
p2285
aS'hsa:8480'
p2286
aS'hsa:8487'
p2287
aS'hsa:8563'
p2288
aS'hsa:8637'
p2289
aS'hsa:8661'
p2290
aS'hsa:8662'
p2291
aS'hsa:8663'
p2292
aS'hsa:8664'
p2293
aS'hsa:8665'
p2294
aS'hsa:8666'
p2295
aS'hsa:8667'
p2296
aS'hsa:8668'
p2297
aS'hsa:8669'
p2298
aS'hsa:8672'
p2299
aS'hsa:8761'
p2300
aS'hsa:8890'
p2301
aS'hsa:8891'
p2302
aS'hsa:8892'
p2303
aS'hsa:8893'
p2304
aS'hsa:8894'
p2305
aS'hsa:9086'
p2306
aS'hsa:91181'
p2307
aS'hsa:94026'
p2308
aS'hsa:9513'
p2309
aS'hsa:9631'
p2310
aS'hsa:9669'
p2311
aS'hsa:96764'
p2312
aS'hsa:9688'
p2313
aS'hsa:9775'
p2314
aS'hsa:9818'
p2315
aS'hsa:9883'
p2316
aS'hsa:9939'
p2317
aS'hsa:9972'
p2318
aS'hsa:9984'
p2319
aS'hsa:100529063'
p2320
aS'hsa:10767'
p2321
aS'hsa:10898'
p2322
aS'hsa:10914'
p2323
aS'hsa:10978'
p2324
aS'hsa:11051'
p2325
aS'hsa:11052'
p2326
aS'hsa:124540'
p2327
aS'hsa:1477'
p2328
aS'hsa:1478'
p2329
aS'hsa:1479'
p2330
aS'hsa:2107'
p2331
aS'hsa:23049'
p2332
aS'hsa:23283'
p2333
aS'hsa:23293'
p2334
aS'hsa:23381'
p2335
aS'hsa:23708'
p2336
aS'hsa:26528'
p2337
aS'hsa:28227'
p2338
aS'hsa:29101'
p2339
aS'hsa:2935'
p2340
aS'hsa:29894'
p2341
aS'hsa:390748'
p2342
aS'hsa:4440'
p2343
aS'hsa:51585'
p2344
aS'hsa:51692'
p2345
aS'hsa:53918'
p2346
aS'hsa:53981'
p2347
aS'hsa:5499'
p2348
aS'hsa:5500'
p2349
aS'hsa:5501'
p2350
aS'hsa:55012'
p2351
aS'hsa:5515'
p2352
aS'hsa:5516'
p2353
aS'hsa:5518'
p2354
aS'hsa:5519'
p2355
aS'hsa:5520'
p2356
aS'hsa:5521'
p2357
aS'hsa:5522'
p2358
aS'hsa:5523'
p2359
aS'hsa:5525'
p2360
aS'hsa:5526'
p2361
aS'hsa:5527'
p2362
aS'hsa:5528'
p2363
aS'hsa:5529'
p2364
aS'hsa:55339'
p2365
aS'hsa:55844'
p2366
aS'hsa:56903'
p2367
aS'hsa:64895'
p2368
aS'hsa:79869'
p2369
aS'hsa:80335'
p2370
aS'hsa:8106'
p2371
aS'hsa:81608'
p2372
aS'hsa:8189'
p2373
aS'hsa:8731'
p2374
aS'hsa:8732'
p2375
aS'hsa:9887'
p2376
aS'hsa:10140'
p2377
aS'hsa:10200'
p2378
aS'hsa:10438'
p2379
aS'hsa:10766'
p2380
aS'hsa:10950'
p2381
aS'hsa:11044'
p2382
aS'hsa:11157'
p2383
aS'hsa:11340'
p2384
aS'hsa:115752'
p2385
aS'hsa:118460'
p2386
aS'hsa:154197'
p2387
aS'hsa:1656'
p2388
aS'hsa:167227'
p2389
aS'hsa:170506'
p2390
aS'hsa:196513'
p2391
aS'hsa:219988'
p2392
aS'hsa:22894'
p2393
aS'hsa:23016'
p2394
aS'hsa:23019'
p2395
aS'hsa:23404'
p2396
aS'hsa:23517'
p2397
aS'hsa:23644'
p2398
aS'hsa:23658'
p2399
aS'hsa:246175'
p2400
aS'hsa:255967'
p2401
aS'hsa:25804'
p2402
aS'hsa:25904'
p2403
aS'hsa:27257'
p2404
aS'hsa:27258'
p2405
aS'hsa:28960'
p2406
aS'hsa:29883'
p2407
aS'hsa:3313'
p2408
aS'hsa:3329'
p2409
aS'hsa:4848'
p2410
aS'hsa:4849'
p2411
aS'hsa:4850'
p2412
aS'hsa:5073'
p2413
aS'hsa:51010'
p2414
aS'hsa:51013'
p2415
aS'hsa:51690'
p2416
aS'hsa:51691'
p2417
aS'hsa:5393'
p2418
aS'hsa:5394'
p2419
aS'hsa:54512'
p2420
aS'hsa:54766'
p2421
aS'hsa:55802'
p2422
aS'hsa:56915'
p2423
aS'hsa:57472'
p2424
aS'hsa:57819'
p2425
aS'hsa:64282'
p2426
aS'hsa:6499'
p2427
aS'hsa:694'
p2428
aS'hsa:7832'
p2429
aS'hsa:80153'
p2430
aS'hsa:80349'
p2431
aS'hsa:84186'
p2432
aS'hsa:9125'
p2433
aS'hsa:9337'
p2434
aS'hsa:9652'
p2435
aS'hsa:9924'
p2436
aS'hsa:1022'
p2437
aS'hsa:10629'
p2438
aS'hsa:11036'
p2439
aS'hsa:129685'
p2440
aS'hsa:138474'
p2441
aS'hsa:2068'
p2442
aS'hsa:2071'
p2443
aS'hsa:27097'
p2444
aS'hsa:2957'
p2445
aS'hsa:2958'
p2446
aS'hsa:2959'
p2447
aS'hsa:2960'
p2448
aS'hsa:2961'
p2449
aS'hsa:2962'
p2450
aS'hsa:2963'
p2451
aS'hsa:2965'
p2452
aS'hsa:2966'
p2453
aS'hsa:2967'
p2454
aS'hsa:2968'
p2455
aS'hsa:2969'
p2456
aS'hsa:387332'
p2457
aS'hsa:404672'
p2458
aS'hsa:4331'
p2459
aS'hsa:51616'
p2460
aS'hsa:54457'
p2461
aS'hsa:6872'
p2462
aS'hsa:6873'
p2463
aS'hsa:6874'
p2464
aS'hsa:6875'
p2465
aS'hsa:6877'
p2466
aS'hsa:6878'
p2467
aS'hsa:6879'
p2468
aS'hsa:6880'
p2469
aS'hsa:6881'
p2470
aS'hsa:6882'
p2471
aS'hsa:6883'
p2472
aS'hsa:6884'
p2473
aS'hsa:6908'
p2474
aS'hsa:728340'
p2475
aS'hsa:730394'
p2476
aS'hsa:8148'
p2477
aS'hsa:83860'
p2478
aS'hsa:902'
p2479
aS'hsa:9519'
p2480
aS'hsa:9569'
p2481
aS'hsa:10535'
p2482
aS'hsa:1763'
p2483
aS'hsa:2237'
p2484
aS'hsa:246243'
p2485
aS'hsa:29935'
p2486
aS'hsa:3978'
p2487
aS'hsa:4171'
p2488
aS'hsa:4172'
p2489
aS'hsa:4173'
p2490
aS'hsa:4174'
p2491
aS'hsa:4175'
p2492
aS'hsa:4176'
p2493
aS'hsa:5111'
p2494
aS'hsa:5981'
p2495
aS'hsa:5982'
p2496
aS'hsa:5983'
p2497
aS'hsa:5984'
p2498
aS'hsa:5985'
p2499
aS'hsa:6117'
p2500
aS'hsa:6118'
p2501
aS'hsa:6119'
p2502
aS'hsa:6742'
p2503
aS'hsa:79621'
p2504
aS'hsa:84153'
p2505
aS'hsa:100534599'
p2506
aS'hsa:10084'
p2507
aS'hsa:10262'
p2508
aS'hsa:102724594'
p2509
aS'hsa:10285'
p2510
aS'hsa:10286'
p2511
aS'hsa:10291'
p2512
aS'hsa:10450'
p2513
aS'hsa:10465'
p2514
aS'hsa:10523'
p2515
aS'hsa:10569'
p2516
aS'hsa:10594'
p2517
aS'hsa:10713'
p2518
aS'hsa:10772'
p2519
aS'hsa:10907'
p2520
aS'hsa:10915'
p2521
aS'hsa:10929'
p2522
aS'hsa:10946'
p2523
aS'hsa:10992'
p2524
aS'hsa:11017'
p2525
aS'hsa:11325'
p2526
aS'hsa:11338'
p2527
aS'hsa:139804'
p2528
aS'hsa:144983'
p2529
aS'hsa:151903'
p2530
aS'hsa:153527'
p2531
aS'hsa:1655'
p2532
aS'hsa:1659'
p2533
aS'hsa:1665'
p2534
aS'hsa:199746'
p2535
aS'hsa:220988'
p2536
aS'hsa:22827'
p2537
aS'hsa:22938'
p2538
aS'hsa:23020'
p2539
aS'hsa:23350'
p2540
aS'hsa:23450'
p2541
aS'hsa:23451'
p2542
aS'hsa:24148'
p2543
aS'hsa:25766'
p2544
aS'hsa:25949'
p2545
aS'hsa:26121'
p2546
aS'hsa:27288'
p2547
aS'hsa:27316'
p2548
aS'hsa:27339'
p2549
aS'hsa:29896'
p2550
aS'hsa:3178'
p2551
aS'hsa:3183'
p2552
aS'hsa:3190'
p2553
aS'hsa:3192'
p2554
aS'hsa:3303'
p2555
aS'hsa:3304'
p2556
aS'hsa:3305'
p2557
aS'hsa:3306'
p2558
aS'hsa:3310'
p2559
aS'hsa:3312'
p2560
aS'hsa:4670'
p2561
aS'hsa:494115'
p2562
aS'hsa:5093'
p2563
aS'hsa:51340'
p2564
aS'hsa:51362'
p2565
aS'hsa:51503'
p2566
aS'hsa:51639'
p2567
aS'hsa:51645'
p2568
aS'hsa:51729'
p2569
aS'hsa:5356'
p2570
aS'hsa:55119'
p2571
aS'hsa:55660'
p2572
aS'hsa:55696'
p2573
aS'hsa:56259'
p2574
aS'hsa:56949'
p2575
aS'hsa:57461'
p2576
aS'hsa:58517'
p2577
aS'hsa:6100'
p2578
aS'hsa:6426'
p2579
aS'hsa:6427'
p2580
aS'hsa:6428'
p2581
aS'hsa:6429'
p2582
aS'hsa:6430'
p2583
aS'hsa:6431'
p2584
aS'hsa:6432'
p2585
aS'hsa:6434'
p2586
aS'hsa:6625'
p2587
aS'hsa:6626'
p2588
aS'hsa:6627'
p2589
aS'hsa:6628'
p2590
aS'hsa:6629'
p2591
aS'hsa:6631'
p2592
aS'hsa:6632'
p2593
aS'hsa:6633'
p2594
aS'hsa:6634'
p2595
aS'hsa:6635'
p2596
aS'hsa:6636'
p2597
aS'hsa:6637'
p2598
aS'hsa:7307'
p2599
aS'hsa:8175'
p2600
aS'hsa:83443'
p2601
aS'hsa:8449'
p2602
aS'hsa:84844'
p2603
aS'hsa:84950'
p2604
aS'hsa:84991'
p2605
aS'hsa:8559'
p2606
aS'hsa:8683'
p2607
aS'hsa:8896'
p2608
aS'hsa:9092'
p2609
aS'hsa:9128'
p2610
aS'hsa:9129'
p2611
aS'hsa:9343'
p2612
aS'hsa:9410'
p2613
aS'hsa:9416'
p2614
aS'hsa:9716'
p2615
aS'hsa:9785'
p2616
aS'hsa:9879'
p2617
aS'hsa:988'
p2618
aS'hsa:10197'
p2619
aS'hsa:10213'
p2620
aS'hsa:11047'
p2621
aS'hsa:122706'
p2622
aS'hsa:143471'
p2623
aS'hsa:23198'
p2624
aS'hsa:3458'
p2625
aS'hsa:51371'
p2626
aS'hsa:5682'
p2627
aS'hsa:5683'
p2628
aS'hsa:5684'
p2629
aS'hsa:5685'
p2630
aS'hsa:5686'
p2631
aS'hsa:5687'
p2632
aS'hsa:5688'
p2633
aS'hsa:5689'
p2634
aS'hsa:5690'
p2635
aS'hsa:5691'
p2636
aS'hsa:5692'
p2637
aS'hsa:5693'
p2638
aS'hsa:5694'
p2639
aS'hsa:5695'
p2640
aS'hsa:5696'
p2641
aS'hsa:5698'
p2642
aS'hsa:5699'
p2643
aS'hsa:5700'
p2644
aS'hsa:5701'
p2645
aS'hsa:5702'
p2646
aS'hsa:5704'
p2647
aS'hsa:5705'
p2648
aS'hsa:5706'
p2649
aS'hsa:5707'
p2650
aS'hsa:5708'
p2651
aS'hsa:5709'
p2652
aS'hsa:5710'
p2653
aS'hsa:5713'
p2654
aS'hsa:5714'
p2655
aS'hsa:5717'
p2656
aS'hsa:5718'
p2657
aS'hsa:5719'
p2658
aS'hsa:5720'
p2659
aS'hsa:5721'
p2660
aS'hsa:7979'
p2661
aS'hsa:9491'
p2662
aS'hsa:9861'
p2663
aS'hsa:10952'
p2664
aS'hsa:11231'
p2665
aS'hsa:196294'
p2666
aS'hsa:23478'
p2667
aS'hsa:23480'
p2668
aS'hsa:28972'
p2669
aS'hsa:29927'
p2670
aS'hsa:3309'
p2671
aS'hsa:5018'
p2672
aS'hsa:55176'
p2673
aS'hsa:58477'
p2674
aS'hsa:60559'
p2675
aS'hsa:6726'
p2676
aS'hsa:6727'
p2677
aS'hsa:6728'
p2678
aS'hsa:6729'
p2679
aS'hsa:6730'
p2680
aS'hsa:6731'
p2681
aS'hsa:6734'
p2682
aS'hsa:7095'
p2683
aS'hsa:83943'
p2684
aS'hsa:90701'
p2685
aS'hsa:9789'
p2686
aS'hsa:10062'
p2687
aS'hsa:10580'
p2688
aS'hsa:10999'
p2689
aS'hsa:11001'
p2690
aS'hsa:116519'
p2691
aS'hsa:123'
p2692
aS'hsa:1622'
p2693
aS'hsa:2167'
p2694
aS'hsa:2168'
p2695
aS'hsa:2169'
p2696
aS'hsa:2170'
p2697
aS'hsa:2171'
p2698
aS'hsa:2172'
p2699
aS'hsa:2173'
p2700
aS'hsa:28965'
p2701
aS'hsa:335'
p2702
aS'hsa:336'
p2703
aS'hsa:345'
p2704
aS'hsa:3611'
p2705
aS'hsa:364'
p2706
aS'hsa:376497'
p2707
aS'hsa:4312'
p2708
aS'hsa:440503'
p2709
aS'hsa:4973'
p2710
aS'hsa:51129'
p2711
aS'hsa:5346'
p2712
aS'hsa:5360'
p2713
aS'hsa:5465'
p2714
aS'hsa:5467'
p2715
aS'hsa:5468'
p2716
aS'hsa:6256'
p2717
aS'hsa:6257'
p2718
aS'hsa:6258'
p2719
aS'hsa:729359'
p2720
aS'hsa:7316'
p2721
aS'hsa:7350'
p2722
aS'hsa:9370'
p2723
aS'hsa:948'
p2724
aS'hsa:10038'
p2725
aS'hsa:10039'
p2726
aS'hsa:142'
p2727
aS'hsa:143'
p2728
aS'hsa:23583'
p2729
aS'hsa:252969'
p2730
aS'hsa:27301'
p2731
aS'hsa:27343'
p2732
aS'hsa:3146'
p2733
aS'hsa:328'
p2734
aS'hsa:3980'
p2735
aS'hsa:4350'
p2736
aS'hsa:4595'
p2737
aS'hsa:4913'
p2738
aS'hsa:4968'
p2739
aS'hsa:5423'
p2740
aS'hsa:55247'
p2741
aS'hsa:6996'
p2742
aS'hsa:7374'
p2743
aS'hsa:7515'
p2744
aS'hsa:79661'
p2745
aS'hsa:8930'
p2746
aS'hsa:100533467'
p2747
aS'hsa:1069'
p2748
aS'hsa:1161'
p2749
aS'hsa:1642'
p2750
aS'hsa:1643'
p2751
aS'hsa:2072'
p2752
aS'hsa:2073'
p2753
aS'hsa:2074'
p2754
aS'hsa:5886'
p2755
aS'hsa:5887'
p2756
aS'hsa:7508'
p2757
aS'hsa:8450'
p2758
aS'hsa:8451'
p2759
aS'hsa:9978'
p2760
aS'hsa:27030'
p2761
aS'hsa:5395'
p2762
aS'hsa:9156'
p2763
aS'hsa:10111'
p2764
aS'hsa:11073'
p2765
aS'hsa:146956'
p2766
aS'hsa:25788'
p2767
aS'hsa:29086'
p2768
aS'hsa:4361'
p2769
aS'hsa:4683'
p2770
aS'hsa:50511'
p2771
aS'hsa:51720'
p2772
aS'hsa:580'
p2773
aS'hsa:5888'
p2774
aS'hsa:5889'
p2775
aS'hsa:5890'
p2776
aS'hsa:5892'
p2777
aS'hsa:5893'
p2778
aS'hsa:5932'
p2779
aS'hsa:641'
p2780
aS'hsa:675'
p2781
aS'hsa:7156'
p2782
aS'hsa:7516'
p2783
aS'hsa:7517'
p2784
aS'hsa:79184'
p2785
aS'hsa:79728'
p2786
aS'hsa:80198'
p2787
aS'hsa:83990'
p2788
aS'hsa:84142'
p2789
aS'hsa:8438'
p2790
aS'hsa:8940'
p2791
aS'hsa:9577'
p2792
aS'hsa:1791'
p2793
aS'hsa:2547'
p2794
aS'hsa:27434'
p2795
aS'hsa:3981'
p2796
aS'hsa:5591'
p2797
aS'hsa:64421'
p2798
aS'hsa:7518'
p2799
aS'hsa:7520'
p2800
aS'hsa:79840'
p2801
aS'hsa:100526739'
p2802
aS'hsa:105369236'
p2803
aS'hsa:11201'
p2804
aS'hsa:116028'
p2805
aS'hsa:197342'
p2806
aS'hsa:201254'
p2807
aS'hsa:2175'
p2808
aS'hsa:2176'
p2809
aS'hsa:2177'
p2810
aS'hsa:2178'
p2811
aS'hsa:2187'
p2812
aS'hsa:2188'
p2813
aS'hsa:2189'
p2814
aS'hsa:22909'
p2815
aS'hsa:29089'
p2816
aS'hsa:3280'
p2817
aS'hsa:353497'
p2818
aS'hsa:378708'
p2819
aS'hsa:51426'
p2820
aS'hsa:51455'
p2821
aS'hsa:545'
p2822
aS'hsa:548593'
p2823
aS'hsa:55120'
p2824
aS'hsa:55215'
p2825
aS'hsa:57599'
p2826
aS'hsa:57697'
p2827
aS'hsa:7398'
p2828
aS'hsa:79008'
p2829
aS'hsa:80010'
p2830
aS'hsa:80233'
p2831
aS'hsa:84126'
p2832
aS'hsa:84464'
p2833
aS'hsa:91442'
p2834
aS'hsa:9894'
p2835
aS'hsa:100506012'
p2836
aS'hsa:10125'
p2837
aS'hsa:10235'
p2838
aS'hsa:10368'
p2839
aS'hsa:10369'
p2840
aS'hsa:10454'
p2841
aS'hsa:10746'
p2842
aS'hsa:10912'
p2843
aS'hsa:11184'
p2844
aS'hsa:11221'
p2845
aS'hsa:115727'
p2846
aS'hsa:1326'
p2847
aS'hsa:1386'
p2848
aS'hsa:1398'
p2849
aS'hsa:1399'
p2850
aS'hsa:1616'
p2851
aS'hsa:1647'
p2852
aS'hsa:1649'
p2853
aS'hsa:1843'
p2854
aS'hsa:1844'
p2855
aS'hsa:1845'
p2856
aS'hsa:1846'
p2857
aS'hsa:1847'
p2858
aS'hsa:1848'
p2859
aS'hsa:1849'
p2860
aS'hsa:1850'
p2861
aS'hsa:1852'
p2862
aS'hsa:2002'
p2863
aS'hsa:2005'
p2864
aS'hsa:2122'
p2865
aS'hsa:2246'
p2866
aS'hsa:2248'
p2867
aS'hsa:2249'
p2868
aS'hsa:2250'
p2869
aS'hsa:2251'
p2870
aS'hsa:2252'
p2871
aS'hsa:2253'
p2872
aS'hsa:2254'
p2873
aS'hsa:2255'
p2874
aS'hsa:2256'
p2875
aS'hsa:2257'
p2876
aS'hsa:2258'
p2877
aS'hsa:2259'
p2878
aS'hsa:2260'
p2879
aS'hsa:2264'
p2880
aS'hsa:22800'
p2881
aS'hsa:22808'
p2882
aS'hsa:23118'
p2883
aS'hsa:2316'
p2884
aS'hsa:23162'
p2885
aS'hsa:2317'
p2886
aS'hsa:2318'
p2887
aS'hsa:23542'
p2888
aS'hsa:25780'
p2889
aS'hsa:26281'
p2890
aS'hsa:26291'
p2891
aS'hsa:27006'
p2892
aS'hsa:27091'
p2893
aS'hsa:27092'
p2894
aS'hsa:27330'
p2895
aS'hsa:2768'
p2896
aS'hsa:2872'
p2897
aS'hsa:3164'
p2898
aS'hsa:3315'
p2899
aS'hsa:3552'
p2900
aS'hsa:3554'
p2901
aS'hsa:3727'
p2902
aS'hsa:3925'
p2903
aS'hsa:408'
p2904
aS'hsa:409'
p2905
aS'hsa:4137'
p2906
aS'hsa:4149'
p2907
aS'hsa:4208'
p2908
aS'hsa:4214'
p2909
aS'hsa:4215'
p2910
aS'hsa:4216'
p2911
aS'hsa:4296'
p2912
aS'hsa:4342'
p2913
aS'hsa:4609'
p2914
aS'hsa:4616'
p2915
aS'hsa:468'
p2916
aS'hsa:4772'
p2917
aS'hsa:4775'
p2918
aS'hsa:4791'
p2919
aS'hsa:4803'
p2920
aS'hsa:4908'
p2921
aS'hsa:4909'
p2922
aS'hsa:4914'
p2923
aS'hsa:4915'
p2924
aS'hsa:5058'
p2925
aS'hsa:5062'
p2926
aS'hsa:51295'
p2927
aS'hsa:51347'
p2928
aS'hsa:51701'
p2929
aS'hsa:51776'
p2930
aS'hsa:5494'
p2931
aS'hsa:5495'
p2932
aS'hsa:5530'
p2933
aS'hsa:5532'
p2934
aS'hsa:5533'
p2935
aS'hsa:5534'
p2936
aS'hsa:5535'
p2937
aS'hsa:5536'
p2938
aS'hsa:55799'
p2939
aS'hsa:55970'
p2940
aS'hsa:5598'
p2941
aS'hsa:5606'
p2942
aS'hsa:5607'
p2943
aS'hsa:5608'
p2944
aS'hsa:5609'
p2945
aS'hsa:57551'
p2946
aS'hsa:5778'
p2947
aS'hsa:5801'
p2948
aS'hsa:5871'
p2949
aS'hsa:5879'
p2950
aS'hsa:5880'
p2951
aS'hsa:5881'
p2952
aS'hsa:5906'
p2953
aS'hsa:5908'
p2954
aS'hsa:5921'
p2955
aS'hsa:5922'
p2956
aS'hsa:5923'
p2957
aS'hsa:5924'
p2958
aS'hsa:59283'
p2959
aS'hsa:59284'
p2960
aS'hsa:59285'
p2961
aS'hsa:5971'
p2962
aS'hsa:6195'
p2963
aS'hsa:6196'
p2964
aS'hsa:6197'
p2965
aS'hsa:6237'
p2966
aS'hsa:627'
p2967
aS'hsa:6416'
p2968
aS'hsa:6722'
p2969
aS'hsa:6788'
p2970
aS'hsa:6789'
p2971
aS'hsa:6885'
p2972
aS'hsa:7040'
p2973
aS'hsa:7042'
p2974
aS'hsa:7043'
p2975
aS'hsa:7046'
p2976
aS'hsa:7048'
p2977
aS'hsa:7132'
p2978
aS'hsa:7186'
p2979
aS'hsa:7189'
p2980
aS'hsa:773'
p2981
aS'hsa:774'
p2982
aS'hsa:775'
p2983
aS'hsa:776'
p2984
aS'hsa:777'
p2985
aS'hsa:778'
p2986
aS'hsa:7786'
p2987
aS'hsa:779'
p2988
aS'hsa:781'
p2989
aS'hsa:782'
p2990
aS'hsa:783'
p2991
aS'hsa:784'
p2992
aS'hsa:785'
p2993
aS'hsa:7850'
p2994
aS'hsa:786'
p2995
aS'hsa:7867'
p2996
aS'hsa:8074'
p2997
aS'hsa:80824'
p2998
aS'hsa:84867'
p2999
aS'hsa:8491'
p3000
aS'hsa:8550'
p3001
aS'hsa:8569'
p3002
aS'hsa:8649'
p3003
aS'hsa:8817'
p3004
aS'hsa:8822'
p3005
aS'hsa:8823'
p3006
aS'hsa:8911'
p3007
aS'hsa:8912'
p3008
aS'hsa:8913'
p3009
aS'hsa:8986'
p3010
aS'hsa:9020'
p3011
aS'hsa:9064'
p3012
aS'hsa:9175'
p3013
aS'hsa:9252'
p3014
aS'hsa:9254'
p3015
aS'hsa:9261'
p3016
aS'hsa:929'
p3017
aS'hsa:9344'
p3018
aS'hsa:93589'
p3019
aS'hsa:9448'
p3020
aS'hsa:9479'
p3021
aS'hsa:9693'
p3022
aS'hsa:994'
p3023
aS'hsa:9965'
p3024
aS'hsa:998'
p3025
aS'hsa:10298'
p3026
aS'hsa:106821730'
p3027
aS'hsa:10718'
p3028
aS'hsa:145957'
p3029
aS'hsa:2066'
p3030
aS'hsa:2069'
p3031
aS'hsa:23624'
p3032
aS'hsa:25'
p3033
aS'hsa:27'
p3034
aS'hsa:374'
p3035
aS'hsa:4690'
p3036
aS'hsa:5063'
p3037
aS'hsa:56924'
p3038
aS'hsa:57144'
p3039
aS'hsa:6776'
p3040
aS'hsa:6777'
p3041
aS'hsa:685'
p3042
aS'hsa:815'
p3043
aS'hsa:816'
p3044
aS'hsa:817'
p3045
aS'hsa:818'
p3046
aS'hsa:8440'
p3047
aS'hsa:867'
p3048
aS'hsa:868'
p3049
aS'hsa:100271927'
p3050
aS'hsa:10156'
p3051
aS'hsa:10681'
p3052
aS'hsa:10928'
p3053
aS'hsa:11186'
p3054
aS'hsa:1435'
p3055
aS'hsa:1436'
p3056
aS'hsa:163688'
p3057
aS'hsa:1942'
p3058
aS'hsa:1943'
p3059
aS'hsa:1944'
p3060
aS'hsa:1945'
p3061
aS'hsa:1946'
p3062
aS'hsa:1969'
p3063
aS'hsa:2113'
p3064
aS'hsa:2114'
p3065
aS'hsa:2277'
p3066
aS'hsa:22821'
p3067
aS'hsa:23179'
p3068
aS'hsa:2321'
p3069
aS'hsa:2324'
p3070
aS'hsa:27040'
p3071
aS'hsa:2782'
p3072
aS'hsa:2783'
p3073
aS'hsa:2784'
p3074
aS'hsa:2785'
p3075
aS'hsa:2786'
p3076
aS'hsa:2787'
p3077
aS'hsa:2788'
p3078
aS'hsa:2790'
p3079
aS'hsa:2791'
p3080
aS'hsa:2792'
p3081
aS'hsa:2793'
p3082
aS'hsa:283455'
p3083
aS'hsa:284'
p3084
aS'hsa:285'
p3085
aS'hsa:2902'
p3086
aS'hsa:2903'
p3087
aS'hsa:2904'
p3088
aS'hsa:29110'
p3089
aS'hsa:3363'
p3090
aS'hsa:3630'
p3091
aS'hsa:3643'
p3092
aS'hsa:3815'
p3093
aS'hsa:382'
p3094
aS'hsa:387'
p3095
aS'hsa:4254'
p3096
aS'hsa:4301'
p3097
aS'hsa:4303'
p3098
aS'hsa:4804'
p3099
aS'hsa:51365'
p3100
aS'hsa:51378'
p3101
aS'hsa:51764'
p3102
aS'hsa:51806'
p3103
aS'hsa:5228'
p3104
aS'hsa:54331'
p3105
aS'hsa:55770'
p3106
aS'hsa:5781'
p3107
aS'hsa:5863'
p3108
aS'hsa:5868'
p3109
aS'hsa:5869'
p3110
aS'hsa:5878'
p3111
aS'hsa:5898'
p3112
aS'hsa:5899'
p3113
aS'hsa:5900'
p3114
aS'hsa:59345'
p3115
aS'hsa:5966'
p3116
aS'hsa:64926'
p3117
aS'hsa:7010'
p3118
aS'hsa:7074'
p3119
aS'hsa:7423'
p3120
aS'hsa:7424'
p3121
aS'hsa:7535'
p3122
aS'hsa:801'
p3123
aS'hsa:8036'
p3124
aS'hsa:805'
p3125
aS'hsa:808'
p3126
aS'hsa:810'
p3127
aS'hsa:8315'
p3128
aS'hsa:83593'
p3129
aS'hsa:8437'
p3130
aS'hsa:8831'
p3131
aS'hsa:8844'
p3132
aS'hsa:91860'
p3133
aS'hsa:94235'
p3134
aS'hsa:9462'
p3135
aS'hsa:9610'
p3136
aS'hsa:9771'
p3137
aS'hsa:9846'
p3138
aS'hsa:10411'
p3139
aS'hsa:10636'
p3140
aS'hsa:11069'
p3141
aS'hsa:1268'
p3142
aS'hsa:135'
p3143
aS'hsa:136'
p3144
aS'hsa:1499'
p3145
aS'hsa:1500'
p3146
aS'hsa:1813'
p3147
aS'hsa:1902'
p3148
aS'hsa:2149'
p3149
aS'hsa:23094'
p3150
aS'hsa:23566'
p3151
aS'hsa:2357'
p3152
aS'hsa:23683'
p3153
aS'hsa:2533'
p3154
aS'hsa:25865'
p3155
aS'hsa:26037'
p3156
aS'hsa:260425'
p3157
aS'hsa:2770'
p3158
aS'hsa:2771'
p3159
aS'hsa:2773'
p3160
aS'hsa:2775'
p3161
aS'hsa:2776'
p3162
aS'hsa:2846'
p3163
aS'hsa:2889'
p3164
aS'hsa:3397'
p3165
aS'hsa:345456'
p3166
aS'hsa:3674'
p3167
aS'hsa:3683'
p3168
aS'hsa:3684'
p3169
aS'hsa:3688'
p3170
aS'hsa:3689'
p3171
aS'hsa:3690'
p3172
aS'hsa:375189'
p3173
aS'hsa:3937'
p3174
aS'hsa:5028'
p3175
aS'hsa:50855'
p3176
aS'hsa:51735'
p3177
aS'hsa:5216'
p3178
aS'hsa:5217'
p3179
aS'hsa:54518'
p3180
aS'hsa:5584'
p3181
aS'hsa:5587'
p3182
aS'hsa:5590'
p3183
aS'hsa:56288'
p3184
aS'hsa:57121'
p3185
aS'hsa:57568'
p3186
aS'hsa:5909'
p3187
aS'hsa:60'
p3188
aS'hsa:64411'
p3189
aS'hsa:6494'
p3190
aS'hsa:7057'
p3191
aS'hsa:7094'
p3192
aS'hsa:71'
p3193
aS'hsa:7408'
p3194
aS'hsa:7410'
p3195
aS'hsa:83660'
p3196
aS'hsa:84552'
p3197
aS'hsa:84612'
p3198
aS'hsa:8631'
p3199
aS'hsa:889'
p3200
aS'hsa:9002'
p3201
aS'hsa:9170'
p3202
aS'hsa:9223'
p3203
aS'hsa:9564'
p3204
aS'hsa:9732'
p3205
aS'hsa:9855'
p3206
aS'hsa:9863'
p3207
aS'hsa:999'
p3208
aS'hsa:10105'
p3209
aS'hsa:102723407'
p3210
aS'hsa:10800'
p3211
aS'hsa:1128'
p3212
aS'hsa:1129'
p3213
aS'hsa:1131'
p3214
aS'hsa:1133'
p3215
aS'hsa:1139'
p3216
aS'hsa:146'
p3217
aS'hsa:147'
p3218
aS'hsa:148'
p3219
aS'hsa:153'
p3220
aS'hsa:154'
p3221
aS'hsa:155'
p3222
aS'hsa:1812'
p3223
aS'hsa:1816'
p3224
aS'hsa:185'
p3225
aS'hsa:1909'
p3226
aS'hsa:1910'
p3227
aS'hsa:2185'
p3228
aS'hsa:22953'
p3229
aS'hsa:2767'
p3230
aS'hsa:2769'
p3231
aS'hsa:2774'
p3232
aS'hsa:2905'
p3233
aS'hsa:2906'
p3234
aS'hsa:291'
p3235
aS'hsa:2911'
p3236
aS'hsa:2915'
p3237
aS'hsa:292'
p3238
aS'hsa:2925'
p3239
aS'hsa:293'
p3240
aS'hsa:3269'
p3241
aS'hsa:3274'
p3242
aS'hsa:3356'
p3243
aS'hsa:3357'
p3244
aS'hsa:3358'
p3245
aS'hsa:3360'
p3246
aS'hsa:3361'
p3247
aS'hsa:3362'
p3248
aS'hsa:340156'
p3249
aS'hsa:3708'
p3250
aS'hsa:3709'
p3251
aS'hsa:3710'
p3252
aS'hsa:3973'
p3253
aS'hsa:4638'
p3254
aS'hsa:487'
p3255
aS'hsa:488'
p3256
aS'hsa:489'
p3257
aS'hsa:490'
p3258
aS'hsa:491'
p3259
aS'hsa:492'
p3260
aS'hsa:4923'
p3261
aS'hsa:493'
p3262
aS'hsa:5021'
p3263
aS'hsa:5023'
p3264
aS'hsa:5024'
p3265
aS'hsa:5025'
p3266
aS'hsa:5026'
p3267
aS'hsa:5027'
p3268
aS'hsa:5255'
p3269
aS'hsa:5256'
p3270
aS'hsa:5257'
p3271
aS'hsa:5260'
p3272
aS'hsa:5261'
p3273
aS'hsa:5350'
p3274
aS'hsa:552'
p3275
aS'hsa:553'
p3276
aS'hsa:56413'
p3277
aS'hsa:57105'
p3278
aS'hsa:5724'
p3279
aS'hsa:5731'
p3280
aS'hsa:5733'
p3281
aS'hsa:5737'
p3282
aS'hsa:57620'
p3283
aS'hsa:623'
p3284
aS'hsa:624'
p3285
aS'hsa:6261'
p3286
aS'hsa:6262'
p3287
aS'hsa:6263'
p3288
aS'hsa:6543'
p3289
aS'hsa:6546'
p3290
aS'hsa:6547'
p3291
aS'hsa:6786'
p3292
aS'hsa:6865'
p3293
aS'hsa:6869'
p3294
aS'hsa:6870'
p3295
aS'hsa:6915'
p3296
aS'hsa:7125'
p3297
aS'hsa:7134'
p3298
aS'hsa:7201'
p3299
aS'hsa:7416'
p3300
aS'hsa:7417'
p3301
aS'hsa:7419'
p3302
aS'hsa:80228'
p3303
aS'hsa:814'
p3304
aS'hsa:83447'
p3305
aS'hsa:84876'
p3306
aS'hsa:85366'
p3307
aS'hsa:886'
p3308
aS'hsa:887'
p3309
aS'hsa:90550'
p3310
aS'hsa:9127'
p3311
aS'hsa:91807'
p3312
aS'hsa:93129'
p3313
aS'hsa:9630'
p3314
aS'hsa:100271849'
p3315
aS'hsa:10242'
p3316
aS'hsa:10335'
p3317
aS'hsa:10398'
p3318
aS'hsa:10488'
p3319
aS'hsa:10672'
p3320
aS'hsa:1258'
p3321
aS'hsa:1259'
p3322
aS'hsa:134'
p3323
aS'hsa:1385'
p3324
aS'hsa:1388'
p3325
aS'hsa:140'
p3326
aS'hsa:146850'
p3327
aS'hsa:148327'
p3328
aS'hsa:150'
p3329
aS'hsa:151'
p3330
aS'hsa:152'
p3331
aS'hsa:157855'
p3332
aS'hsa:23439'
p3333
aS'hsa:23533'
p3334
aS'hsa:2626'
p3335
aS'hsa:27094'
p3336
aS'hsa:27345'
p3337
aS'hsa:3667'
p3338
aS'hsa:3764'
p3339
aS'hsa:3778'
p3340
aS'hsa:3779'
p3341
aS'hsa:4205'
p3342
aS'hsa:4207'
p3343
aS'hsa:4209'
p3344
aS'hsa:4625'
p3345
aS'hsa:4659'
p3346
aS'hsa:476'
p3347
aS'hsa:477'
p3348
aS'hsa:4773'
p3349
aS'hsa:4776'
p3350
aS'hsa:478'
p3351
aS'hsa:480'
p3352
aS'hsa:481'
p3353
aS'hsa:482'
p3354
aS'hsa:483'
p3355
aS'hsa:486'
p3356
aS'hsa:4879'
p3357
aS'hsa:4985'
p3358
aS'hsa:5581'
p3359
aS'hsa:5592'
p3360
aS'hsa:5593'
p3361
aS'hsa:5997'
p3362
aS'hsa:6093'
p3363
aS'hsa:64764'
p3364
aS'hsa:7225'
p3365
aS'hsa:84699'
p3366
aS'hsa:8471'
p3367
aS'hsa:8660'
p3368
aS'hsa:90993'
p3369
aS'hsa:9475'
p3370
aS'hsa:9586'
p3371
aS'hsa:10021'
p3372
aS'hsa:10451'
p3373
aS'hsa:116443'
p3374
aS'hsa:116444'
p3375
aS'hsa:117'
p3376
aS'hsa:1260'
p3377
aS'hsa:1261'
p3378
aS'hsa:1262'
p3379
aS'hsa:1387'
p3380
aS'hsa:139760'
p3381
aS'hsa:2033'
p3382
aS'hsa:2488'
p3383
aS'hsa:2492'
p3384
aS'hsa:2550'
p3385
aS'hsa:268'
p3386
aS'hsa:2693'
p3387
aS'hsa:2696'
p3388
aS'hsa:27198'
p3389
aS'hsa:2735'
p3390
aS'hsa:2737'
p3391
aS'hsa:2740'
p3392
aS'hsa:2867'
p3393
aS'hsa:2890'
p3394
aS'hsa:2891'
p3395
aS'hsa:2892'
p3396
aS'hsa:2893'
p3397
aS'hsa:3350'
p3398
aS'hsa:3351'
p3399
aS'hsa:3352'
p3400
aS'hsa:3354'
p3401
aS'hsa:3355'
p3402
aS'hsa:338442'
p3403
aS'hsa:3991'
p3404
aS'hsa:4158'
p3405
aS'hsa:4792'
p3406
aS'hsa:4852'
p3407
aS'hsa:4886'
p3408
aS'hsa:51738'
p3409
aS'hsa:5348'
p3410
aS'hsa:54714'
p3411
aS'hsa:56670'
p3412
aS'hsa:5727'
p3413
aS'hsa:5732'
p3414
aS'hsa:610'
p3415
aS'hsa:64399'
p3416
aS'hsa:6548'
p3417
aS'hsa:6662'
p3418
aS'hsa:6751'
p3419
aS'hsa:6752'
p3420
aS'hsa:6755'
p3421
aS'hsa:7137'
p3422
aS'hsa:7253'
p3423
aS'hsa:7409'
p3424
aS'hsa:7434'
p3425
aS'hsa:84152'
p3426
aS'hsa:8843'
p3427
aS'hsa:9568'
p3428
aS'hsa:10344'
p3429
aS'hsa:10563'
p3430
aS'hsa:10663'
p3431
aS'hsa:10673'
p3432
aS'hsa:10803'
p3433
aS'hsa:10850'
p3434
aS'hsa:10913'
p3435
aS'hsa:11009'
p3436
aS'hsa:112744'
p3437
aS'hsa:115650'
p3438
aS'hsa:116379'
p3439
aS'hsa:1230'
p3440
aS'hsa:1232'
p3441
aS'hsa:1233'
p3442
aS'hsa:1234'
p3443
aS'hsa:1235'
p3444
aS'hsa:1236'
p3445
aS'hsa:1237'
p3446
aS'hsa:1270'
p3447
aS'hsa:1271'
p3448
aS'hsa:132014'
p3449
aS'hsa:1437'
p3450
aS'hsa:1438'
p3451
aS'hsa:1439'
p3452
aS'hsa:1440'
p3453
aS'hsa:1441'
p3454
aS'hsa:1489'
p3455
aS'hsa:149233'
p3456
aS'hsa:1524'
p3457
aS'hsa:163702'
p3458
aS'hsa:1896'
p3459
aS'hsa:2056'
p3460
aS'hsa:2057'
p3461
aS'hsa:2322'
p3462
aS'hsa:2323'
p3463
aS'hsa:23495'
p3464
aS'hsa:23529'
p3465
aS'hsa:23765'
p3466
aS'hsa:2688'
p3467
aS'hsa:2689'
p3468
aS'hsa:269'
p3469
aS'hsa:2690'
p3470
aS'hsa:27189'
p3471
aS'hsa:27190'
p3472
aS'hsa:27242'
p3473
aS'hsa:2826'
p3474
aS'hsa:282616'
p3475
aS'hsa:282617'
p3476
aS'hsa:282618'
p3477
aS'hsa:2829'
p3478
aS'hsa:2833'
p3479
aS'hsa:2919'
p3480
aS'hsa:2920'
p3481
aS'hsa:2921'
p3482
aS'hsa:29949'
p3483
aS'hsa:338376'
p3484
aS'hsa:3439'
p3485
aS'hsa:3440'
p3486
aS'hsa:3441'
p3487
aS'hsa:3442'
p3488
aS'hsa:3443'
p3489
aS'hsa:3444'
p3490
aS'hsa:3445'
p3491
aS'hsa:3446'
p3492
aS'hsa:3447'
p3493
aS'hsa:3448'
p3494
aS'hsa:3449'
p3495
aS'hsa:3451'
p3496
aS'hsa:3452'
p3497
aS'hsa:3454'
p3498
aS'hsa:3455'
p3499
aS'hsa:3456'
p3500
aS'hsa:3459'
p3501
aS'hsa:3460'
p3502
aS'hsa:3467'
p3503
aS'hsa:3556'
p3504
aS'hsa:3558'
p3505
aS'hsa:3559'
p3506
aS'hsa:3560'
p3507
aS'hsa:3561'
p3508
aS'hsa:3562'
p3509
aS'hsa:3563'
p3510
aS'hsa:3565'
p3511
aS'hsa:3566'
p3512
aS'hsa:3567'
p3513
aS'hsa:3568'
p3514
aS'hsa:3572'
p3515
aS'hsa:3574'
p3516
aS'hsa:3575'
p3517
aS'hsa:3576'
p3518
aS'hsa:3577'
p3519
aS'hsa:3578'
p3520
aS'hsa:3579'
p3521
aS'hsa:3581'
p3522
aS'hsa:3586'
p3523
aS'hsa:3587'
p3524
aS'hsa:3588'
p3525
aS'hsa:3589'
p3526
aS'hsa:3590'
p3527
aS'hsa:3592'
p3528
aS'hsa:3593'
p3529
aS'hsa:3594'
p3530
aS'hsa:3595'
p3531
aS'hsa:3596'
p3532
aS'hsa:3597'
p3533
aS'hsa:3600'
p3534
aS'hsa:3601'
p3535
aS'hsa:3604'
p3536
aS'hsa:3605'
p3537
aS'hsa:3606'
p3538
aS'hsa:3624'
p3539
aS'hsa:3625'
p3540
aS'hsa:3626'
p3541
aS'hsa:3627'
p3542
aS'hsa:388372'
p3543
aS'hsa:3952'
p3544
aS'hsa:3953'
p3545
aS'hsa:3976'
p3546
aS'hsa:3977'
p3547
aS'hsa:4049'
p3548
aS'hsa:4050'
p3549
aS'hsa:4055'
p3550
aS'hsa:414062'
p3551
aS'hsa:4283'
p3552
aS'hsa:4352'
p3553
aS'hsa:4982'
p3554
aS'hsa:5008'
p3555
aS'hsa:50604'
p3556
aS'hsa:50615'
p3557
aS'hsa:50616'
p3558
aS'hsa:51330'
p3559
aS'hsa:51561'
p3560
aS'hsa:5196'
p3561
aS'hsa:5197'
p3562
aS'hsa:53342'
p3563
aS'hsa:53832'
p3564
aS'hsa:53833'
p3565
aS'hsa:5473'
p3566
aS'hsa:55504'
p3567
aS'hsa:55540'
p3568
aS'hsa:55801'
p3569
aS'hsa:5617'
p3570
aS'hsa:5618'
p3571
aS'hsa:56477'
p3572
aS'hsa:56832'
p3573
aS'hsa:57007'
p3574
aS'hsa:58191'
p3575
aS'hsa:58985'
p3576
aS'hsa:59067'
p3577
aS'hsa:60401'
p3578
aS'hsa:608'
p3579
aS'hsa:6346'
p3580
aS'hsa:6347'
p3581
aS'hsa:6348'
p3582
aS'hsa:6349'
p3583
aS'hsa:6351'
p3584
aS'hsa:6352'
p3585
aS'hsa:6354'
p3586
aS'hsa:6355'
p3587
aS'hsa:6356'
p3588
aS'hsa:6357'
p3589
aS'hsa:6358'
p3590
aS'hsa:6359'
p3591
aS'hsa:6360'
p3592
aS'hsa:6361'
p3593
aS'hsa:6362'
p3594
aS'hsa:6363'
p3595
aS'hsa:6364'
p3596
aS'hsa:6366'
p3597
aS'hsa:6367'
p3598
aS'hsa:6368'
p3599
aS'hsa:6369'
p3600
aS'hsa:6370'
p3601
aS'hsa:6372'
p3602
aS'hsa:6373'
p3603
aS'hsa:6374'
p3604
aS'hsa:6375'
p3605
aS'hsa:6376'
p3606
aS'hsa:6387'
p3607
aS'hsa:64109'
p3608
aS'hsa:643'
p3609
aS'hsa:64806'
p3610
aS'hsa:650'
p3611
aS'hsa:655'
p3612
aS'hsa:657'
p3613
aS'hsa:658'
p3614
aS'hsa:659'
p3615
aS'hsa:6846'
p3616
aS'hsa:7066'
p3617
aS'hsa:7133'
p3618
aS'hsa:7292'
p3619
aS'hsa:729230'
p3620
aS'hsa:7293'
p3621
aS'hsa:7852'
p3622
aS'hsa:80301'
p3623
aS'hsa:8200'
p3624
aS'hsa:83729'
p3625
aS'hsa:84818'
p3626
aS'hsa:84957'
p3627
aS'hsa:85480'
p3628
aS'hsa:8600'
p3629
aS'hsa:8718'
p3630
aS'hsa:8740'
p3631
aS'hsa:8741'
p3632
aS'hsa:8742'
p3633
aS'hsa:8743'
p3634
aS'hsa:8744'
p3635
aS'hsa:8764'
p3636
aS'hsa:8771'
p3637
aS'hsa:8784'
p3638
aS'hsa:8792'
p3639
aS'hsa:8793'
p3640
aS'hsa:8794'
p3641
aS'hsa:8795'
p3642
aS'hsa:8797'
p3643
aS'hsa:8807'
p3644
aS'hsa:8809'
p3645
aS'hsa:8995'
p3646
aS'hsa:90'
p3647
aS'hsa:91'
p3648
aS'hsa:9180'
p3649
aS'hsa:92'
p3650
aS'hsa:93'
p3651
aS'hsa:939'
p3652
aS'hsa:943'
p3653
aS'hsa:944'
p3654
aS'hsa:9547'
p3655
aS'hsa:9560'
p3656
aS'hsa:958'
p3657
aS'hsa:959'
p3658
aS'hsa:970'
p3659
aS'hsa:9966'
p3660
aS'hsa:131890'
p3661
aS'hsa:156'
p3662
aS'hsa:157'
p3663
aS'hsa:1794'
p3664
aS'hsa:2268'
p3665
aS'hsa:2868'
p3666
aS'hsa:2869'
p3667
aS'hsa:2870'
p3668
aS'hsa:2931'
p3669
aS'hsa:3055'
p3670
aS'hsa:3702'
p3671
aS'hsa:3718'
p3672
aS'hsa:4067'
p3673
aS'hsa:4793'
p3674
aS'hsa:5580'
p3675
aS'hsa:57580'
p3676
aS'hsa:5829'
p3677
aS'hsa:6011'
p3678
aS'hsa:653361'
p3679
aS'hsa:6772'
p3680
aS'hsa:6773'
p3681
aS'hsa:7454'
p3682
aS'hsa:8976'
p3683
aS'hsa:9844'
p3684
aS'hsa:10892'
p3685
aS'hsa:114609'
p3686
aS'hsa:148022'
p3687
aS'hsa:23085'
p3688
aS'hsa:23586'
p3689
aS'hsa:23643'
p3690
aS'hsa:257397'
p3691
aS'hsa:29760'
p3692
aS'hsa:29775'
p3693
aS'hsa:3383'
p3694
aS'hsa:353376'
p3695
aS'hsa:3654'
p3696
aS'hsa:3929'
p3697
aS'hsa:3932'
p3698
aS'hsa:4615'
p3699
aS'hsa:51135'
p3700
aS'hsa:51588'
p3701
aS'hsa:5328'
p3702
aS'hsa:55367'
p3703
aS'hsa:5588'
p3704
aS'hsa:597'
p3705
aS'hsa:6850'
p3706
aS'hsa:695'
p3707
aS'hsa:7099'
p3708
aS'hsa:7128'
p3709
aS'hsa:7185'
p3710
aS'hsa:7187'
p3711
aS'hsa:7188'
p3712
aS'hsa:7412'
p3713
aS'hsa:7706'
p3714
aS'hsa:79092'
p3715
aS'hsa:84433'
p3716
aS'hsa:8717'
p3717
aS'hsa:8737'
p3718
aS'hsa:8837'
p3719
aS'hsa:8915'
p3720
aS'hsa:112398'
p3721
aS'hsa:112399'
p3722
aS'hsa:1536'
p3723
aS'hsa:1906'
p3724
aS'hsa:3091'
p3725
aS'hsa:405'
p3726
aS'hsa:4878'
p3727
aS'hsa:5054'
p3728
aS'hsa:5163'
p3729
aS'hsa:54583'
p3730
aS'hsa:6513'
p3731
aS'hsa:6921'
p3732
aS'hsa:6923'
p3733
aS'hsa:7018'
p3734
aS'hsa:7037'
p3735
aS'hsa:7076'
p3736
aS'hsa:7428'
p3737
aS'hsa:8453'
p3738
aS'hsa:100132074'
p3739
aS'hsa:100533105'
p3740
aS'hsa:10110'
p3741
aS'hsa:1017'
p3742
aS'hsa:102800317'
p3743
aS'hsa:1030'
p3744
aS'hsa:1032'
p3745
aS'hsa:10365'
p3746
aS'hsa:10733'
p3747
aS'hsa:10769'
p3748
aS'hsa:11337'
p3749
aS'hsa:11345'
p3750
aS'hsa:114907'
p3751
aS'hsa:116986'
p3752
aS'hsa:1263'
p3753
aS'hsa:1454'
p3754
aS'hsa:1901'
p3755
aS'hsa:2290'
p3756
aS'hsa:2308'
p3757
aS'hsa:23411'
p3758
aS'hsa:23678'
p3759
aS'hsa:23710'
p3760
aS'hsa:26260'
p3761
aS'hsa:3276'
p3762
aS'hsa:4087'
p3763
aS'hsa:4088'
p3764
aS'hsa:4089'
p3765
aS'hsa:51422'
p3766
aS'hsa:5347'
p3767
aS'hsa:53632'
p3768
aS'hsa:5562'
p3769
aS'hsa:5563'
p3770
aS'hsa:5564'
p3771
aS'hsa:5565'
p3772
aS'hsa:5571'
p3773
aS'hsa:5896'
p3774
aS'hsa:5897'
p3775
aS'hsa:5934'
p3776
aS'hsa:604'
p3777
aS'hsa:6446'
p3778
aS'hsa:6502'
p3779
aS'hsa:6517'
p3780
aS'hsa:664'
p3781
aS'hsa:6648'
p3782
aS'hsa:6794'
p3783
aS'hsa:7874'
p3784
aS'hsa:85417'
p3785
aS'hsa:8698'
p3786
aS'hsa:891'
p3787
aS'hsa:894'
p3788
aS'hsa:901'
p3789
aS'hsa:9133'
p3790
aS'hsa:9140'
p3791
aS'hsa:9454'
p3792
aS'hsa:9455'
p3793
aS'hsa:9456'
p3794
aS'hsa:117283'
p3795
aS'hsa:23262'
p3796
aS'hsa:51447'
p3797
aS'hsa:55529'
p3798
aS'hsa:90809'
p3799
aS'hsa:9677'
p3800
aS'hsa:9807'
p3801
aS'hsa:1509'
p3802
aS'hsa:1903'
p3803
aS'hsa:2205'
p3804
aS'hsa:2206'
p3805
aS'hsa:2207'
p3806
aS'hsa:2534'
p3807
aS'hsa:53637'
p3808
aS'hsa:8439'
p3809
aS'hsa:9294'
p3810
aS'hsa:10161'
p3811
aS'hsa:1759'
p3812
aS'hsa:1785'
p3813
aS'hsa:26052'
p3814
aS'hsa:27128'
p3815
aS'hsa:2912'
p3816
aS'hsa:2913'
p3817
aS'hsa:2914'
p3818
aS'hsa:2916'
p3819
aS'hsa:2917'
p3820
aS'hsa:2918'
p3821
aS'hsa:375'
p3822
aS'hsa:551'
p3823
aS'hsa:554'
p3824
aS'hsa:6009'
p3825
aS'hsa:7248'
p3826
aS'hsa:7249'
p3827
aS'hsa:9265'
p3828
aS'hsa:9266'
p3829
aS'hsa:9267'
p3830
aS'hsa:100996758'
p3831
aS'hsa:10203'
p3832
aS'hsa:10316'
p3833
aS'hsa:105379861'
p3834
aS'hsa:1081'
p3835
aS'hsa:10886'
p3836
aS'hsa:10888'
p3837
aS'hsa:11255'
p3838
aS'hsa:1132'
p3839
aS'hsa:1134'
p3840
aS'hsa:1135'
p3841
aS'hsa:1136'
p3842
aS'hsa:1137'
p3843
aS'hsa:1138'
p3844
aS'hsa:1140'
p3845
aS'hsa:1141'
p3846
aS'hsa:1142'
p3847
aS'hsa:1143'
p3848
aS'hsa:1144'
p3849
aS'hsa:1145'
p3850
aS'hsa:1146'
p3851
aS'hsa:122042'
p3852
aS'hsa:1241'
p3853
aS'hsa:1269'
p3854
aS'hsa:134860'
p3855
aS'hsa:134864'
p3856
aS'hsa:1394'
p3857
aS'hsa:1395'
p3858
aS'hsa:1442'
p3859
aS'hsa:1443'
p3860
aS'hsa:1511'
p3861
aS'hsa:165829'
p3862
aS'hsa:1814'
p3863
aS'hsa:1815'
p3864
aS'hsa:186'
p3865
aS'hsa:187'
p3866
aS'hsa:200959'
p3867
aS'hsa:2147'
p3868
aS'hsa:2150'
p3869
aS'hsa:2151'
p3870
aS'hsa:2358'
p3871
aS'hsa:2359'
p3872
aS'hsa:23620'
p3873
aS'hsa:2554'
p3874
aS'hsa:2555'
p3875
aS'hsa:2556'
p3876
aS'hsa:2557'
p3877
aS'hsa:2558'
p3878
aS'hsa:2559'
p3879
aS'hsa:2560'
p3880
aS'hsa:2561'
p3881
aS'hsa:2562'
p3882
aS'hsa:2563'
p3883
aS'hsa:2564'
p3884
aS'hsa:2565'
p3885
aS'hsa:2566'
p3886
aS'hsa:2567'
p3887
aS'hsa:2568'
p3888
aS'hsa:2569'
p3889
aS'hsa:2570'
p3890
aS'hsa:2587'
p3891
aS'hsa:2642'
p3892
aS'hsa:2692'
p3893
aS'hsa:27334'
p3894
aS'hsa:2741'
p3895
aS'hsa:2742'
p3896
aS'hsa:2743'
p3897
aS'hsa:2798'
p3898
aS'hsa:2831'
p3899
aS'hsa:2832'
p3900
aS'hsa:2834'
p3901
aS'hsa:2837'
p3902
aS'hsa:2847'
p3903
aS'hsa:2859'
p3904
aS'hsa:2862'
p3905
aS'hsa:286530'
p3906
aS'hsa:2894'
p3907
aS'hsa:2895'
p3908
aS'hsa:2897'
p3909
aS'hsa:2898'
p3910
aS'hsa:2899'
p3911
aS'hsa:2900'
p3912
aS'hsa:2901'
p3913
aS'hsa:2908'
p3914
aS'hsa:3001'
p3915
aS'hsa:3061'
p3916
aS'hsa:3062'
p3917
aS'hsa:319100'
p3918
aS'hsa:339403'
p3919
aS'hsa:3972'
p3920
aS'hsa:4142'
p3921
aS'hsa:4157'
p3922
aS'hsa:4159'
p3923
aS'hsa:4160'
p3924
aS'hsa:4161'
p3925
aS'hsa:4543'
p3926
aS'hsa:4544'
p3927
aS'hsa:4829'
p3928
aS'hsa:4887'
p3929
aS'hsa:4889'
p3930
aS'hsa:4986'
p3931
aS'hsa:4987'
p3932
aS'hsa:4988'
p3933
aS'hsa:5029'
p3934
aS'hsa:5030'
p3935
aS'hsa:5031'
p3936
aS'hsa:5032'
p3937
aS'hsa:51289'
p3938
aS'hsa:5340'
p3939
aS'hsa:53829'
p3940
aS'hsa:5540'
p3941
aS'hsa:55584'
p3942
aS'hsa:55879'
p3943
aS'hsa:5644'
p3944
aS'hsa:5645'
p3945
aS'hsa:5646'
p3946
aS'hsa:56923'
p3947
aS'hsa:57053'
p3948
aS'hsa:5729'
p3949
aS'hsa:5734'
p3950
aS'hsa:5739'
p3951
aS'hsa:5745'
p3952
aS'hsa:5746'
p3953
aS'hsa:59340'
p3954
aS'hsa:59350'
p3955
aS'hsa:6344'
p3956
aS'hsa:64106'
p3957
aS'hsa:6753'
p3958
aS'hsa:6754'
p3959
aS'hsa:680'
p3960
aS'hsa:706'
p3961
aS'hsa:7067'
p3962
aS'hsa:7068'
p3963
aS'hsa:719'
p3964
aS'hsa:7252'
p3965
aS'hsa:728'
p3966
aS'hsa:7433'
p3967
aS'hsa:7442'
p3968
aS'hsa:799'
p3969
aS'hsa:8001'
p3970
aS'hsa:83551'
p3971
aS'hsa:84539'
p3972
aS'hsa:84634'
p3973
aS'hsa:8484'
p3974
aS'hsa:8811'
p3975
aS'hsa:8973'
p3976
aS'hsa:9038'
p3977
aS'hsa:9248'
p3978
aS'hsa:9287'
p3979
aS'hsa:9340'
p3980
aS'hsa:9934'
p3981
aS'hsa:1021'
p3982
aS'hsa:10274'
p3983
aS'hsa:1028'
p3984
aS'hsa:10393'
p3985
aS'hsa:10459'
p3986
aS'hsa:10735'
p3987
aS'hsa:10744'
p3988
aS'hsa:10926'
p3989
aS'hsa:10971'
p3990
aS'hsa:1111'
p3991
aS'hsa:11200'
p3992
aS'hsa:1874'
p3993
aS'hsa:1875'
p3994
aS'hsa:23594'
p3995
aS'hsa:23595'
p3996
aS'hsa:246184'
p3997
aS'hsa:25847'
p3998
aS'hsa:27127'
p3999
aS'hsa:2810'
p4000
aS'hsa:29882'
p4001
aS'hsa:29945'
p4002
aS'hsa:3065'
p4003
aS'hsa:3066'
p4004
aS'hsa:4085'
p4005
aS'hsa:494551'
p4006
aS'hsa:4998'
p4007
aS'hsa:4999'
p4008
aS'hsa:5000'
p4009
aS'hsa:5001'
p4010
aS'hsa:51343'
p4011
aS'hsa:51433'
p4012
aS'hsa:51434'
p4013
aS'hsa:51529'
p4014
aS'hsa:5885'
p4015
aS'hsa:5933'
p4016
aS'hsa:64682'
p4017
aS'hsa:6500'
p4018
aS'hsa:699'
p4019
aS'hsa:701'
p4020
aS'hsa:7027'
p4021
aS'hsa:7029'
p4022
aS'hsa:7272'
p4023
aS'hsa:7465'
p4024
aS'hsa:7529'
p4025
aS'hsa:7531'
p4026
aS'hsa:7532'
p4027
aS'hsa:7533'
p4028
aS'hsa:7534'
p4029
aS'hsa:7709'
p4030
aS'hsa:8243'
p4031
aS'hsa:8317'
p4032
aS'hsa:8318'
p4033
aS'hsa:8379'
p4034
aS'hsa:8454'
p4035
aS'hsa:8555'
p4036
aS'hsa:8556'
p4037
aS'hsa:8697'
p4038
aS'hsa:8881'
p4039
aS'hsa:890'
p4040
aS'hsa:8900'
p4041
aS'hsa:896'
p4042
aS'hsa:898'
p4043
aS'hsa:9088'
p4044
aS'hsa:9126'
p4045
aS'hsa:9134'
p4046
aS'hsa:9184'
p4047
aS'hsa:9232'
p4048
aS'hsa:9700'
p4049
aS'hsa:983'
p4050
aS'hsa:990'
p4051
aS'hsa:991'
p4052
aS'hsa:993'
p4053
aS'hsa:995'
p4054
aS'hsa:996'
p4055
aS'hsa:100310812'
p4056
aS'hsa:100505767'
p4057
aS'hsa:100996746'
p4058
aS'hsa:102723555'
p4059
aS'hsa:102723849'
p4060
aS'hsa:10734'
p4061
aS'hsa:132864'
p4062
aS'hsa:151648'
p4063
aS'hsa:22849'
p4064
aS'hsa:23291'
p4065
aS'hsa:245711'
p4066
aS'hsa:26271'
p4067
aS'hsa:285955'
p4068
aS'hsa:286151'
p4069
aS'hsa:367'
p4070
aS'hsa:387778'
p4071
aS'hsa:388333'
p4072
aS'hsa:441272'
p4073
aS'hsa:441273'
p4074
aS'hsa:442590'
p4075
aS'hsa:5241'
p4076
aS'hsa:64506'
p4077
aS'hsa:6790'
p4078
aS'hsa:729597'
p4079
aS'hsa:80315'
p4080
aS'hsa:8945'
p4081
aS'hsa:9748'
p4082
aS'hsa:9985'
p4083
aS'hsa:143686'
p4084
aS'hsa:25898'
p4085
aS'hsa:27244'
p4086
aS'hsa:3486'
p4087
aS'hsa:3732'
p4088
aS'hsa:4194'
p4089
aS'hsa:51246'
p4090
aS'hsa:51512'
p4091
aS'hsa:5268'
p4092
aS'hsa:55240'
p4093
aS'hsa:56475'
p4094
aS'hsa:575'
p4095
aS'hsa:63970'
p4096
aS'hsa:64065'
p4097
aS'hsa:64326'
p4098
aS'hsa:64393'
p4099
aS'hsa:6477'
p4100
aS'hsa:7161'
p4101
aS'hsa:83667'
p4102
aS'hsa:8493'
p4103
aS'hsa:900'
p4104
aS'hsa:92344'
p4105
aS'hsa:9538'
p4106
aS'hsa:9540'
p4107
aS'hsa:10054'
p4108
aS'hsa:10055'
p4109
aS'hsa:10075'
p4110
aS'hsa:10273'
p4111
aS'hsa:10277'
p4112
aS'hsa:10401'
p4113
aS'hsa:10477'
p4114
aS'hsa:11059'
p4115
aS'hsa:11060'
p4116
aS'hsa:11065'
p4117
aS'hsa:112401'
p4118
aS'hsa:118424'
p4119
aS'hsa:134111'
p4120
aS'hsa:140739'
p4121
aS'hsa:148581'
p4122
aS'hsa:22888'
p4123
aS'hsa:22954'
p4124
aS'hsa:23221'
p4125
aS'hsa:23295'
p4126
aS'hsa:23327'
p4127
aS'hsa:23759'
p4128
aS'hsa:26091'
p4129
aS'hsa:26232'
p4130
aS'hsa:26259'
p4131
aS'hsa:26272'
p4132
aS'hsa:27338'
p4133
aS'hsa:3093'
p4134
aS'hsa:326'
p4135
aS'hsa:378884'
p4136
aS'hsa:389898'
p4137
aS'hsa:4281'
p4138
aS'hsa:4591'
p4139
aS'hsa:4734'
p4140
aS'hsa:5071'
p4141
aS'hsa:51366'
p4142
aS'hsa:51465'
p4143
aS'hsa:51619'
p4144
aS'hsa:5371'
p4145
aS'hsa:54926'
p4146
aS'hsa:55070'
p4147
aS'hsa:55236'
p4148
aS'hsa:55284'
p4149
aS'hsa:55294'
p4150
aS'hsa:55585'
p4151
aS'hsa:55958'
p4152
aS'hsa:57154'
p4153
aS'hsa:57448'
p4154
aS'hsa:63893'
p4155
aS'hsa:64750'
p4156
aS'hsa:65264'
p4157
aS'hsa:7317'
p4158
aS'hsa:7318'
p4159
aS'hsa:7319'
p4160
aS'hsa:7320'
p4161
aS'hsa:7321'
p4162
aS'hsa:7322'
p4163
aS'hsa:7323'
p4164
aS'hsa:7324'
p4165
aS'hsa:7325'
p4166
aS'hsa:7326'
p4167
aS'hsa:7327'
p4168
aS'hsa:7328'
p4169
aS'hsa:7332'
p4170
aS'hsa:7334'
p4171
aS'hsa:7337'
p4172
aS'hsa:79444'
p4173
aS'hsa:8065'
p4174
aS'hsa:83737'
p4175
aS'hsa:84447'
p4176
aS'hsa:8452'
p4177
aS'hsa:8554'
p4178
aS'hsa:8651'
p4179
aS'hsa:8916'
p4180
aS'hsa:8924'
p4181
aS'hsa:8925'
p4182
aS'hsa:89910'
p4183
aS'hsa:9021'
p4184
aS'hsa:90293'
p4185
aS'hsa:9039'
p4186
aS'hsa:9040'
p4187
aS'hsa:9063'
p4188
aS'hsa:9246'
p4189
aS'hsa:92912'
p4190
aS'hsa:9320'
p4191
aS'hsa:9354'
p4192
aS'hsa:9616'
p4193
aS'hsa:9690'
p4194
aS'hsa:9817'
p4195
aS'hsa:9820'
p4196
aS'hsa:9886'
p4197
aS'hsa:997'
p4198
aS'hsa:27304'
p4199
aS'hsa:348180'
p4200
aS'hsa:81605'
p4201
aS'hsa:90353'
p4202
aS'hsa:10228'
p4203
aS'hsa:10282'
p4204
aS'hsa:10490'
p4205
aS'hsa:10652'
p4206
aS'hsa:10791'
p4207
aS'hsa:112755'
p4208
aS'hsa:143187'
p4209
aS'hsa:2054'
p4210
aS'hsa:415117'
p4211
aS'hsa:51272'
p4212
aS'hsa:53407'
p4213
aS'hsa:55014'
p4214
aS'hsa:55850'
p4215
aS'hsa:662'
p4216
aS'hsa:6804'
p4217
aS'hsa:6809'
p4218
aS'hsa:6810'
p4219
aS'hsa:6811'
p4220
aS'hsa:6843'
p4221
aS'hsa:6844'
p4222
aS'hsa:6845'
p4223
aS'hsa:8417'
p4224
aS'hsa:8673'
p4225
aS'hsa:8674'
p4226
aS'hsa:8675'
p4227
aS'hsa:8676'
p4228
aS'hsa:8677'
p4229
aS'hsa:8773'
p4230
aS'hsa:9341'
p4231
aS'hsa:9342'
p4232
aS'hsa:9482'
p4233
aS'hsa:9527'
p4234
aS'hsa:9554'
p4235
aS'hsa:9570'
p4236
aS'hsa:10533'
p4237
aS'hsa:115201'
p4238
aS'hsa:23130'
p4239
aS'hsa:23192'
p4240
aS'hsa:26100'
p4241
aS'hsa:285973'
p4242
aS'hsa:30849'
p4243
aS'hsa:3476'
p4244
aS'hsa:441925'
p4245
aS'hsa:55054'
p4246
aS'hsa:55062'
p4247
aS'hsa:55102'
p4248
aS'hsa:57521'
p4249
aS'hsa:60673'
p4250
aS'hsa:64223'
p4251
aS'hsa:64422'
p4252
aS'hsa:79065'
p4253
aS'hsa:83734'
p4254
aS'hsa:84938'
p4255
aS'hsa:84971'
p4256
aS'hsa:8678'
p4257
aS'hsa:9474'
p4258
aS'hsa:9706'
p4259
aS'hsa:9776'
p4260
aS'hsa:10133'
p4261
aS'hsa:10241'
p4262
aS'hsa:10370'
p4263
aS'hsa:139341'
p4264
aS'hsa:192111'
p4265
aS'hsa:23786'
p4266
aS'hsa:338382'
p4267
aS'hsa:4077'
p4268
aS'hsa:4286'
p4269
aS'hsa:51024'
p4270
aS'hsa:54543'
p4271
aS'hsa:55288'
p4272
aS'hsa:55626'
p4273
aS'hsa:55669'
p4274
aS'hsa:64786'
p4275
aS'hsa:65018'
p4276
aS'hsa:665'
p4277
aS'hsa:7030'
p4278
aS'hsa:7314'
p4279
aS'hsa:7879'
p4280
aS'hsa:7942'
p4281
aS'hsa:79735'
p4282
aS'hsa:8408'
p4283
aS'hsa:84749'
p4284
aS'hsa:8878'
p4285
aS'hsa:8887'
p4286
aS'hsa:89941'
p4287
aS'hsa:9101'
p4288
aS'hsa:9451'
p4289
aS'hsa:9927'
p4290
aS'hsa:9958'
p4291
aS'hsa:10325'
p4292
aS'hsa:10645'
p4293
aS'hsa:10670'
p4294
aS'hsa:118471'
p4295
aS'hsa:1508'
p4296
aS'hsa:1514'
p4297
aS'hsa:1612'
p4298
aS'hsa:1613'
p4299
aS'hsa:2081'
p4300
aS'hsa:22863'
p4301
aS'hsa:23604'
p4302
aS'hsa:29982'
p4303
aS'hsa:3916'
p4304
aS'hsa:3920'
p4305
aS'hsa:440275'
p4306
aS'hsa:51100'
p4307
aS'hsa:53349'
p4308
aS'hsa:54541'
p4309
aS'hsa:55578'
p4310
aS'hsa:58476'
p4311
aS'hsa:58528'
p4312
aS'hsa:64121'
p4313
aS'hsa:64798'
p4314
aS'hsa:7405'
p4315
aS'hsa:81671'
p4316
aS'hsa:83452'
p4317
aS'hsa:84335'
p4318
aS'hsa:89849'
p4319
aS'hsa:9711'
p4320
aS'hsa:9821'
p4321
aS'hsa:100506742'
p4322
aS'hsa:10113'
p4323
aS'hsa:10130'
p4324
aS'hsa:10134'
p4325
aS'hsa:102724652'
p4326
aS'hsa:10294'
p4327
aS'hsa:10299'
p4328
aS'hsa:10427'
p4329
aS'hsa:10483'
p4330
aS'hsa:10484'
p4331
aS'hsa:10525'
p4332
aS'hsa:10802'
p4333
aS'hsa:10808'
p4334
aS'hsa:10956'
p4335
aS'hsa:10960'
p4336
aS'hsa:10961'
p4337
aS'hsa:10970'
p4338
aS'hsa:1409'
p4339
aS'hsa:1410'
p4340
aS'hsa:143630'
p4341
aS'hsa:22824'
p4342
aS'hsa:22872'
p4343
aS'hsa:22926'
p4344
aS'hsa:23471'
p4345
aS'hsa:23640'
p4346
aS'hsa:23645'
p4347
aS'hsa:258010'
p4348
aS'hsa:25956'
p4349
aS'hsa:26270'
p4350
aS'hsa:267'
p4351
aS'hsa:27102'
p4352
aS'hsa:27248'
p4353
aS'hsa:285126'
p4354
aS'hsa:2923'
p4355
aS'hsa:29978'
p4356
aS'hsa:29979'
p4357
aS'hsa:30001'
p4358
aS'hsa:3300'
p4359
aS'hsa:3301'
p4360
aS'hsa:3320'
p4361
aS'hsa:3326'
p4362
aS'hsa:3337'
p4363
aS'hsa:3998'
p4364
aS'hsa:4287'
p4365
aS'hsa:4780'
p4366
aS'hsa:5034'
p4367
aS'hsa:50613'
p4368
aS'hsa:51009'
p4369
aS'hsa:51128'
p4370
aS'hsa:51360'
p4371
aS'hsa:51726'
p4372
aS'hsa:54431'
p4373
aS'hsa:54788'
p4374
aS'hsa:55432'
p4375
aS'hsa:55666'
p4376
aS'hsa:55741'
p4377
aS'hsa:55757'
p4378
aS'hsa:55768'
p4379
aS'hsa:55829'
p4380
aS'hsa:5589'
p4381
aS'hsa:55968'
p4382
aS'hsa:5610'
p4383
aS'hsa:5611'
p4384
aS'hsa:56605'
p4385
aS'hsa:56681'
p4386
aS'hsa:56886'
p4387
aS'hsa:56893'
p4388
aS'hsa:573'
p4389
aS'hsa:6048'
p4390
aS'hsa:6238'
p4391
aS'hsa:6400'
p4392
aS'hsa:64215'
p4393
aS'hsa:64374'
p4394
aS'hsa:6745'
p4395
aS'hsa:6746'
p4396
aS'hsa:6747'
p4397
aS'hsa:6748'
p4398
aS'hsa:7184'
p4399
aS'hsa:7353'
p4400
aS'hsa:7415'
p4401
aS'hsa:7466'
p4402
aS'hsa:7494'
p4403
aS'hsa:79139'
p4404
aS'hsa:79748'
p4405
aS'hsa:80267'
p4406
aS'hsa:80331'
p4407
aS'hsa:80343'
p4408
aS'hsa:80700'
p4409
aS'hsa:811'
p4410
aS'hsa:81567'
p4411
aS'hsa:821'
p4412
aS'hsa:823'
p4413
aS'hsa:824'
p4414
aS'hsa:85479'
p4415
aS'hsa:8720'
p4416
aS'hsa:91319'
p4417
aS'hsa:91445'
p4418
aS'hsa:92552'
p4419
aS'hsa:9373'
p4420
aS'hsa:9532'
p4421
aS'hsa:9601'
p4422
aS'hsa:9632'
p4423
aS'hsa:9695'
p4424
aS'hsa:9709'
p4425
aS'hsa:9871'
p4426
aS'hsa:10053'
p4427
aS'hsa:10239'
p4428
aS'hsa:10577'
p4429
aS'hsa:10717'
p4430
aS'hsa:1075'
p4431
aS'hsa:10947'
p4432
aS'hsa:11154'
p4433
aS'hsa:1174'
p4434
aS'hsa:1176'
p4435
aS'hsa:1200'
p4436
aS'hsa:1201'
p4437
aS'hsa:1203'
p4438
aS'hsa:1211'
p4439
aS'hsa:1212'
p4440
aS'hsa:1213'
p4441
aS'hsa:130340'
p4442
aS'hsa:1497'
p4443
aS'hsa:1510'
p4444
aS'hsa:1512'
p4445
aS'hsa:1513'
p4446
aS'hsa:1515'
p4447
aS'hsa:1519'
p4448
aS'hsa:1520'
p4449
aS'hsa:1521'
p4450
aS'hsa:1522'
p4451
aS'hsa:162'
p4452
aS'hsa:164'
p4453
aS'hsa:1777'
p4454
aS'hsa:22901'
p4455
aS'hsa:23062'
p4456
aS'hsa:23163'
p4457
aS'hsa:23431'
p4458
aS'hsa:256471'
p4459
aS'hsa:26088'
p4460
aS'hsa:26503'
p4461
aS'hsa:26985'
p4462
aS'hsa:27074'
p4463
aS'hsa:2760'
p4464
aS'hsa:285362'
p4465
aS'hsa:3482'
p4466
aS'hsa:4074'
p4467
aS'hsa:4864'
p4468
aS'hsa:4891'
p4469
aS'hsa:51172'
p4470
aS'hsa:5476'
p4471
aS'hsa:55353'
p4472
aS'hsa:5641'
p4473
aS'hsa:5660'
p4474
aS'hsa:57192'
p4475
aS'hsa:58511'
p4476
aS'hsa:6272'
p4477
aS'hsa:6556'
p4478
aS'hsa:768239'
p4479
aS'hsa:7805'
p4480
aS'hsa:79158'
p4481
aS'hsa:8120'
p4482
aS'hsa:8218'
p4483
aS'hsa:84572'
p4484
aS'hsa:8546'
p4485
aS'hsa:8722'
p4486
aS'hsa:8763'
p4487
aS'hsa:8905'
p4488
aS'hsa:8906'
p4489
aS'hsa:8907'
p4490
aS'hsa:8943'
p4491
aS'hsa:9179'
p4492
aS'hsa:9476'
p4493
aS'hsa:950'
p4494
aS'hsa:9516'
p4495
aS'hsa:967'
p4496
aS'hsa:968'
p4497
aS'hsa:9741'
p4498
aS'hsa:10015'
p4499
aS'hsa:100287171'
p4500
aS'hsa:100526767'
p4501
aS'hsa:10092'
p4502
aS'hsa:10093'
p4503
aS'hsa:10094'
p4504
aS'hsa:10095'
p4505
aS'hsa:10109'
p4506
aS'hsa:10193'
p4507
aS'hsa:10254'
p4508
aS'hsa:10552'
p4509
aS'hsa:10564'
p4510
aS'hsa:10565'
p4511
aS'hsa:10617'
p4512
aS'hsa:10890'
p4513
aS'hsa:10938'
p4514
aS'hsa:11021'
p4515
aS'hsa:11031'
p4516
aS'hsa:11267'
p4517
aS'hsa:112936'
p4518
aS'hsa:11311'
p4519
aS'hsa:116983'
p4520
aS'hsa:116984'
p4521
aS'hsa:116985'
p4522
aS'hsa:116987'
p4523
aS'hsa:116988'
p4524
aS'hsa:1173'
p4525
aS'hsa:1175'
p4526
aS'hsa:118813'
p4527
aS'hsa:128866'
p4528
aS'hsa:137492'
p4529
aS'hsa:147179'
p4530
aS'hsa:155382'
p4531
aS'hsa:160'
p4532
aS'hsa:1601'
p4533
aS'hsa:161'
p4534
aS'hsa:163'
p4535
aS'hsa:2060'
p4536
aS'hsa:22841'
p4537
aS'hsa:22905'
p4538
aS'hsa:23096'
p4539
aS'hsa:23111'
p4540
aS'hsa:23325'
p4541
aS'hsa:23362'
p4542
aS'hsa:23527'
p4543
aS'hsa:23550'
p4544
aS'hsa:253725'
p4545
aS'hsa:254122'
p4546
aS'hsa:25978'
p4547
aS'hsa:26056'
p4548
aS'hsa:26119'
p4549
aS'hsa:26286'
p4550
aS'hsa:27131'
p4551
aS'hsa:27183'
p4552
aS'hsa:27243'
p4553
aS'hsa:273'
p4554
aS'hsa:274'
p4555
aS'hsa:28964'
p4556
aS'hsa:29082'
p4557
aS'hsa:29924'
p4558
aS'hsa:29934'
p4559
aS'hsa:30011'
p4560
aS'hsa:30844'
p4561
aS'hsa:30845'
p4562
aS'hsa:30846'
p4563
aS'hsa:3105'
p4564
aS'hsa:3106'
p4565
aS'hsa:3107'
p4566
aS'hsa:3133'
p4567
aS'hsa:3134'
p4568
aS'hsa:3135'
p4569
aS'hsa:377'
p4570
aS'hsa:3798'
p4571
aS'hsa:3799'
p4572
aS'hsa:3800'
p4573
aS'hsa:381'
p4574
aS'hsa:387680'
p4575
aS'hsa:3949'
p4576
aS'hsa:4218'
p4577
aS'hsa:440073'
p4578
aS'hsa:50807'
p4579
aS'hsa:51019'
p4580
aS'hsa:51028'
p4581
aS'hsa:51160'
p4582
aS'hsa:5119'
p4583
aS'hsa:51324'
p4584
aS'hsa:51510'
p4585
aS'hsa:51534'
p4586
aS'hsa:51652'
p4587
aS'hsa:51699'
p4588
aS'hsa:55040'
p4589
aS'hsa:55048'
p4590
aS'hsa:55616'
p4591
aS'hsa:55737'
p4592
aS'hsa:55738'
p4593
aS'hsa:5662'
p4594
aS'hsa:56904'
p4595
aS'hsa:57132'
p4596
aS'hsa:57403'
p4597
aS'hsa:58513'
p4598
aS'hsa:58533'
p4599
aS'hsa:5867'
p4600
aS'hsa:5979'
p4601
aS'hsa:60682'
p4602
aS'hsa:64145'
p4603
aS'hsa:644150'
p4604
aS'hsa:6455'
p4605
aS'hsa:6456'
p4606
aS'hsa:6457'
p4607
aS'hsa:64744'
p4608
aS'hsa:6642'
p4609
aS'hsa:6643'
p4610
aS'hsa:7251'
p4611
aS'hsa:7456'
p4612
aS'hsa:79643'
p4613
aS'hsa:79720'
p4614
aS'hsa:80223'
p4615
aS'hsa:80230'
p4616
aS'hsa:8027'
p4617
aS'hsa:81873'
p4618
aS'hsa:829'
p4619
aS'hsa:830'
p4620
aS'hsa:832'
p4621
aS'hsa:8411'
p4622
aS'hsa:84249'
p4623
aS'hsa:84313'
p4624
aS'hsa:84364'
p4625
aS'hsa:84440'
p4626
aS'hsa:857'
p4627
aS'hsa:858'
p4628
aS'hsa:859'
p4629
aS'hsa:8723'
p4630
aS'hsa:8724'
p4631
aS'hsa:8729'
p4632
aS'hsa:8766'
p4633
aS'hsa:8853'
p4634
aS'hsa:89853'
p4635
aS'hsa:9135'
p4636
aS'hsa:9146'
p4637
aS'hsa:91782'
p4638
aS'hsa:9230'
p4639
aS'hsa:92421'
p4640
aS'hsa:93343'
p4641
aS'hsa:93661'
p4642
aS'hsa:9372'
p4643
aS'hsa:9525'
p4644
aS'hsa:9559'
p4645
aS'hsa:9727'
p4646
aS'hsa:9744'
p4647
aS'hsa:9765'
p4648
aS'hsa:9798'
p4649
aS'hsa:9815'
p4650
aS'hsa:9829'
p4651
aS'hsa:9897'
p4652
aS'hsa:9922'
p4653
aS'hsa:10332'
p4654
aS'hsa:10333'
p4655
aS'hsa:10376'
p4656
aS'hsa:10381'
p4657
aS'hsa:10382'
p4658
aS'hsa:10383'
p4659
aS'hsa:11151'
p4660
aS'hsa:112714'
p4661
aS'hsa:113457'
p4662
aS'hsa:1311'
p4663
aS'hsa:1535'
p4664
aS'hsa:1778'
p4665
aS'hsa:1780'
p4666
aS'hsa:1781'
p4667
aS'hsa:1783'
p4668
aS'hsa:203068'
p4669
aS'hsa:2204'
p4670
aS'hsa:2209'
p4671
aS'hsa:2212'
p4672
aS'hsa:2213'
p4673
aS'hsa:2214'
p4674
aS'hsa:2215'
p4675
aS'hsa:22925'
p4676
aS'hsa:23673'
p4677
aS'hsa:30835'
p4678
aS'hsa:3108'
p4679
aS'hsa:3109'
p4680
aS'hsa:3111'
p4681
aS'hsa:3112'
p4682
aS'hsa:3113'
p4683
aS'hsa:3115'
p4684
aS'hsa:3117'
p4685
aS'hsa:3118'
p4686
aS'hsa:3119'
p4687
aS'hsa:3122'
p4688
aS'hsa:3123'
p4689
aS'hsa:3125'
p4690
aS'hsa:3126'
p4691
aS'hsa:3127'
p4692
aS'hsa:347688'
p4693
aS'hsa:347733'
p4694
aS'hsa:3673'
p4695
aS'hsa:3678'
p4696
aS'hsa:3685'
p4697
aS'hsa:3693'
p4698
aS'hsa:4153'
p4699
aS'hsa:4353'
p4700
aS'hsa:4360'
p4701
aS'hsa:4481'
p4702
aS'hsa:4688'
p4703
aS'hsa:4689'
p4704
aS'hsa:51143'
p4705
aS'hsa:51807'
p4706
aS'hsa:6441'
p4707
aS'hsa:64581'
p4708
aS'hsa:653509'
p4709
aS'hsa:7058'
p4710
aS'hsa:7059'
p4711
aS'hsa:7060'
p4712
aS'hsa:7097'
p4713
aS'hsa:715'
p4714
aS'hsa:718'
p4715
aS'hsa:7277'
p4716
aS'hsa:7278'
p4717
aS'hsa:7280'
p4718
aS'hsa:729238'
p4719
aS'hsa:7846'
p4720
aS'hsa:78989'
p4721
aS'hsa:79659'
p4722
aS'hsa:79861'
p4723
aS'hsa:81027'
p4724
aS'hsa:81035'
p4725
aS'hsa:83547'
p4726
aS'hsa:84617'
p4727
aS'hsa:84790'
p4728
aS'hsa:8685'
p4729
aS'hsa:9103'
p4730
aS'hsa:949'
p4731
aS'hsa:9902'
p4732
aS'hsa:10478'
p4733
aS'hsa:11264'
p4734
aS'hsa:1384'
p4735
aS'hsa:1891'
p4736
aS'hsa:196743'
p4737
aS'hsa:255027'
p4738
aS'hsa:25824'
p4739
aS'hsa:26061'
p4740
aS'hsa:26063'
p4741
aS'hsa:283927'
p4742
aS'hsa:390916'
p4743
aS'hsa:4358'
p4744
aS'hsa:5052'
p4745
aS'hsa:51555'
p4746
aS'hsa:5189'
p4747
aS'hsa:5190'
p4748
aS'hsa:5191'
p4749
aS'hsa:5192'
p4750
aS'hsa:5193'
p4751
aS'hsa:5194'
p4752
aS'hsa:5195'
p4753
aS'hsa:5264'
p4754
aS'hsa:54677'
p4755
aS'hsa:55670'
p4756
aS'hsa:55711'
p4757
aS'hsa:5824'
p4758
aS'hsa:5827'
p4759
aS'hsa:5828'
p4760
aS'hsa:5830'
p4761
aS'hsa:6647'
p4762
aS'hsa:84188'
p4763
aS'hsa:84769'
p4764
aS'hsa:8504'
p4765
aS'hsa:8799'
p4766
aS'hsa:8800'
p4767
aS'hsa:92960'
p4768
aS'hsa:9409'
p4769
aS'hsa:10542'
p4770
aS'hsa:10641'
p4771
aS'hsa:107080638'
p4772
aS'hsa:11211'
p4773
aS'hsa:153129'
p4774
aS'hsa:1855'
p4775
aS'hsa:1856'
p4776
aS'hsa:1857'
p4777
aS'hsa:201163'
p4778
aS'hsa:220441'
p4779
aS'hsa:253260'
p4780
aS'hsa:2535'
p4781
aS'hsa:2887'
p4782
aS'hsa:28956'
p4783
aS'hsa:389541'
p4784
aS'hsa:4040'
p4785
aS'hsa:4041'
p4786
aS'hsa:51256'
p4787
aS'hsa:51384'
p4788
aS'hsa:51719'
p4789
aS'hsa:54361'
p4790
aS'hsa:54468'
p4791
aS'hsa:55004'
p4792
aS'hsa:55437'
p4793
aS'hsa:55615'
p4794
aS'hsa:57600'
p4795
aS'hsa:6249'
p4796
aS'hsa:6520'
p4797
aS'hsa:7471'
p4798
aS'hsa:7472'
p4799
aS'hsa:7473'
p4800
aS'hsa:7474'
p4801
aS'hsa:7475'
p4802
aS'hsa:7476'
p4803
aS'hsa:7477'
p4804
aS'hsa:7478'
p4805
aS'hsa:7479'
p4806
aS'hsa:7480'
p4807
aS'hsa:7481'
p4808
aS'hsa:7482'
p4809
aS'hsa:7483'
p4810
aS'hsa:7484'
p4811
aS'hsa:7855'
p4812
aS'hsa:79109'
p4813
aS'hsa:79726'
p4814
aS'hsa:7976'
p4815
aS'hsa:80326'
p4816
aS'hsa:81029'
p4817
aS'hsa:8131'
p4818
aS'hsa:8140'
p4819
aS'hsa:81617'
p4820
aS'hsa:8321'
p4821
aS'hsa:8322'
p4822
aS'hsa:8323'
p4823
aS'hsa:8324'
p4824
aS'hsa:8325'
p4825
aS'hsa:8326'
p4826
aS'hsa:84219'
p4827
aS'hsa:89780'
p4828
aS'hsa:92335'
p4829
aS'hsa:96459'
p4830
aS'hsa:9675'
p4831
aS'hsa:9681'
p4832
aS'hsa:10319'
p4833
aS'hsa:1101'
p4834
aS'hsa:11140'
p4835
aS'hsa:117145'
p4836
aS'hsa:118788'
p4837
aS'hsa:1277'
p4838
aS'hsa:1278'
p4839
aS'hsa:1280'
p4840
aS'hsa:1282'
p4841
aS'hsa:1284'
p4842
aS'hsa:1285'
p4843
aS'hsa:1286'
p4844
aS'hsa:1287'
p4845
aS'hsa:1288'
p4846
aS'hsa:1291'
p4847
aS'hsa:1292'
p4848
aS'hsa:1293'
p4849
aS'hsa:1297'
p4850
aS'hsa:1298'
p4851
aS'hsa:1299'
p4852
aS'hsa:131873'
p4853
aS'hsa:200186'
p4854
aS'hsa:22798'
p4855
aS'hsa:22801'
p4856
aS'hsa:23035'
p4857
aS'hsa:23239'
p4858
aS'hsa:2335'
p4859
aS'hsa:256076'
p4860
aS'hsa:284217'
p4861
aS'hsa:29941'
p4862
aS'hsa:3371'
p4863
aS'hsa:3381'
p4864
aS'hsa:3655'
p4865
aS'hsa:3672'
p4866
aS'hsa:3675'
p4867
aS'hsa:3676'
p4868
aS'hsa:3679'
p4869
aS'hsa:3680'
p4870
aS'hsa:3691'
p4871
aS'hsa:3694'
p4872
aS'hsa:3695'
p4873
aS'hsa:3696'
p4874
aS'hsa:3908'
p4875
aS'hsa:3910'
p4876
aS'hsa:3912'
p4877
aS'hsa:3913'
p4878
aS'hsa:3914'
p4879
aS'hsa:3915'
p4880
aS'hsa:3918'
p4881
aS'hsa:4170'
p4882
aS'hsa:4515'
p4883
aS'hsa:4602'
p4884
aS'hsa:5585'
p4885
aS'hsa:5586'
p4886
aS'hsa:5649'
p4887
aS'hsa:63923'
p4888
aS'hsa:6696'
p4889
aS'hsa:7143'
p4890
aS'hsa:7148'
p4891
aS'hsa:7448'
p4892
aS'hsa:7450'
p4893
aS'hsa:8115'
p4894
aS'hsa:8515'
p4895
aS'hsa:8516'
p4896
aS'hsa:930'
p4897
aS'hsa:9623'
p4898
aS'hsa:101930123'
p4899
aS'hsa:10891'
p4900
aS'hsa:1938'
p4901
aS'hsa:1994'
p4902
aS'hsa:23216'
p4903
aS'hsa:29904'
p4904
aS'hsa:3172'
p4905
aS'hsa:51094'
p4906
aS'hsa:51552'
p4907
aS'hsa:5862'
p4908
aS'hsa:6720'
p4909
aS'hsa:79602'
p4910
aS'hsa:153090'
p4911
aS'hsa:1676'
p4912
aS'hsa:1677'
p4913
aS'hsa:2021'
p4914
aS'hsa:27429'
p4915
aS'hsa:3002'
p4916
aS'hsa:4000'
p4917
aS'hsa:4001'
p4918
aS'hsa:5414'
p4919
aS'hsa:5551'
p4920
aS'hsa:56616'
p4921
aS'hsa:5783'
p4922
aS'hsa:6708'
p4923
aS'hsa:6709'
p4924
aS'hsa:835'
p4925
aS'hsa:839'
p4926
aS'hsa:840'
p4927
aS'hsa:843'
p4928
aS'hsa:84823'
p4929
aS'hsa:8739'
p4930
aS'hsa:9131'
p4931
aS'hsa:26060'
p4932
aS'hsa:3170'
p4933
aS'hsa:81570'
p4934
aS'hsa:666'
p4935
aS'hsa:23516'
p4936
aS'hsa:23657'
p4937
aS'hsa:2495'
p4938
aS'hsa:2512'
p4939
aS'hsa:30061'
p4940
aS'hsa:440738'
p4941
aS'hsa:5094'
p4942
aS'hsa:5621'
p4943
aS'hsa:64116'
p4944
aS'hsa:8031'
p4945
aS'hsa:81631'
p4946
aS'hsa:84557'
p4947
aS'hsa:94033'
p4948
aS'hsa:10059'
p4949
aS'hsa:10379'
p4950
aS'hsa:10616'
p4951
aS'hsa:11035'
p4952
aS'hsa:11124'
p4953
aS'hsa:114548'
p4954
aS'hsa:124044'
p4955
aS'hsa:1540'
p4956
aS'hsa:197259'
p4957
aS'hsa:221613'
p4958
aS'hsa:27005'
p4959
aS'hsa:29108'
p4960
aS'hsa:3012'
p4961
aS'hsa:3013'
p4962
aS'hsa:3014'
p4963
aS'hsa:3015'
p4964
aS'hsa:317772'
p4965
aS'hsa:474381'
p4966
aS'hsa:474382'
p4967
aS'hsa:5478'
p4968
aS'hsa:5481'
p4969
aS'hsa:54822'
p4970
aS'hsa:55072'
p4971
aS'hsa:55506'
p4972
aS'hsa:55766'
p4973
aS'hsa:6775'
p4974
aS'hsa:6778'
p4975
aS'hsa:7098'
p4976
aS'hsa:723790'
p4977
aS'hsa:7297'
p4978
aS'hsa:81030'
p4979
aS'hsa:81858'
p4980
aS'hsa:8329'
p4981
aS'hsa:8330'
p4982
aS'hsa:8331'
p4983
aS'hsa:8332'
p4984
aS'hsa:8334'
p4985
aS'hsa:8335'
p4986
aS'hsa:8336'
p4987
aS'hsa:8337'
p4988
aS'hsa:8338'
p4989
aS'hsa:834'
p4990
aS'hsa:83740'
p4991
aS'hsa:85235'
p4992
aS'hsa:8969'
p4993
aS'hsa:90865'
p4994
aS'hsa:92815'
p4995
aS'hsa:94239'
p4996
aS'hsa:9555'
p4997
aS'hsa:9825'
p4998
aS'hsa:10114'
p4999
aS'hsa:10758'
p5000
aS'hsa:132660'
p5001
aS'hsa:144715'
p5002
aS'hsa:147746'
p5003
aS'hsa:204851'
p5004
aS'hsa:2305'
p5005
aS'hsa:286826'
p5006
aS'hsa:28996'
p5007
aS'hsa:3364'
p5008
aS'hsa:3802'
p5009
aS'hsa:3803'
p5010
aS'hsa:3804'
p5011
aS'hsa:3805'
p5012
aS'hsa:4605'
p5013
aS'hsa:55957'
p5014
aS'hsa:57292'
p5015
aS'hsa:5810'
p5016
aS'hsa:5883'
p5017
aS'hsa:5928'
p5018
aS'hsa:59341'
p5019
aS'hsa:677'
p5020
aS'hsa:678'
p5021
aS'hsa:91750'
p5022
aS'hsa:10479'
p5023
aS'hsa:4624'
p5024
aS'hsa:4633'
p5025
aS'hsa:4634'
p5026
aS'hsa:4635'
p5027
aS'hsa:70'
p5028
aS'hsa:7139'
p5029
aS'hsa:7168'
p5030
aS'hsa:7169'
p5031
aS'hsa:7170'
p5032
aS'hsa:7171'
p5033
aS'hsa:1390'
p5034
aS'hsa:3753'
p5035
aS'hsa:3784'
p5036
aS'hsa:5502'
p5037
aS'hsa:6324'
p5038
aS'hsa:6330'
p5039
aS'hsa:6331'
p5040
aS'hsa:6332'
p5041
aS'hsa:10266'
p5042
aS'hsa:10267'
p5043
aS'hsa:10268'
p5044
aS'hsa:140465'
p5045
aS'hsa:23365'
p5046
aS'hsa:4629'
p5047
aS'hsa:4637'
p5048
aS'hsa:4660'
p5049
aS'hsa:54776'
p5050
aS'hsa:5583'
p5051
aS'hsa:59'
p5052
aS'hsa:72'
p5053
aS'hsa:800'
p5054
aS'hsa:9138'
p5055
aS'hsa:94274'
p5056
aS'hsa:9826'
p5057
aS'hsa:10023'
p5058
aS'hsa:10297'
p5059
aS'hsa:11197'
p5060
aS'hsa:122011'
p5061
aS'hsa:144165'
p5062
aS'hsa:1452'
p5063
aS'hsa:147111'
p5064
aS'hsa:1487'
p5065
aS'hsa:1488'
p5066
aS'hsa:166336'
p5067
aS'hsa:2239'
p5068
aS'hsa:22943'
p5069
aS'hsa:23002'
p5070
aS'hsa:23401'
p5071
aS'hsa:23500'
p5072
aS'hsa:25805'
p5073
aS'hsa:27101'
p5074
aS'hsa:27121'
p5075
aS'hsa:27123'
p5076
aS'hsa:27130'
p5077
aS'hsa:324'
p5078
aS'hsa:4316'
p5079
aS'hsa:50964'
p5080
aS'hsa:51176'
p5081
aS'hsa:5176'
p5082
aS'hsa:5663'
p5083
aS'hsa:56998'
p5084
aS'hsa:57216'
p5085
aS'hsa:57680'
p5086
aS'hsa:6422'
p5087
aS'hsa:6423'
p5088
aS'hsa:6424'
p5089
aS'hsa:6425'
p5090
aS'hsa:64321'
p5091
aS'hsa:64840'
p5092
aS'hsa:6907'
p5093
aS'hsa:6932'
p5094
aS'hsa:6934'
p5095
aS'hsa:79718'
p5096
aS'hsa:80319'
p5097
aS'hsa:8061'
p5098
aS'hsa:81839'
p5099
aS'hsa:8312'
p5100
aS'hsa:8313'
p5101
aS'hsa:83439'
p5102
aS'hsa:85407'
p5103
aS'hsa:85409'
p5104
aS'hsa:8607'
p5105
aS'hsa:90665'
p5106
aS'hsa:9350'
p5107
aS'hsa:11317'
p5108
aS'hsa:113878'
p5109
aS'hsa:151636'
p5110
aS'hsa:171558'
p5111
aS'hsa:1840'
p5112
aS'hsa:196403'
p5113
aS'hsa:23220'
p5114
aS'hsa:23385'
p5115
aS'hsa:2648'
p5116
aS'hsa:3516'
p5117
aS'hsa:388585'
p5118
aS'hsa:51107'
p5119
aS'hsa:55534'
p5120
aS'hsa:55851'
p5121
aS'hsa:5664'
p5122
aS'hsa:6868'
p5123
aS'hsa:83464'
p5124
aS'hsa:84441'
p5125
aS'hsa:8650'
p5126
aS'hsa:8850'
p5127
aS'hsa:9253'
p5128
aS'hsa:9541'
p5129
aS'hsa:9612'
p5130
aS'hsa:9794'
p5131
aS'hsa:11127'
p5132
aS'hsa:132884'
p5133
aS'hsa:1453'
p5134
aS'hsa:1455'
p5135
aS'hsa:1456'
p5136
aS'hsa:2121'
p5137
aS'hsa:23432'
p5138
aS'hsa:2619'
p5139
aS'hsa:2736'
p5140
aS'hsa:339745'
p5141
aS'hsa:3549'
p5142
aS'hsa:374654'
p5143
aS'hsa:4036'
p5144
aS'hsa:50846'
p5145
aS'hsa:50937'
p5146
aS'hsa:51684'
p5147
aS'hsa:53944'
p5148
aS'hsa:6469'
p5149
aS'hsa:6608'
p5150
aS'hsa:8405'
p5151
aS'hsa:8643'
p5152
aS'hsa:91653'
p5153
aS'hsa:100532736'
p5154
aS'hsa:10468'
p5155
aS'hsa:10637'
p5156
aS'hsa:130399'
p5157
aS'hsa:151449'
p5158
aS'hsa:1634'
p5159
aS'hsa:3398'
p5160
aS'hsa:3399'
p5161
aS'hsa:3400'
p5162
aS'hsa:353500'
p5163
aS'hsa:392255'
p5164
aS'hsa:4052'
p5165
aS'hsa:4086'
p5166
aS'hsa:4090'
p5167
aS'hsa:4091'
p5168
aS'hsa:4092'
p5169
aS'hsa:4093'
p5170
aS'hsa:4681'
p5171
aS'hsa:4838'
p5172
aS'hsa:5308'
p5173
aS'hsa:60436'
p5174
aS'hsa:652'
p5175
aS'hsa:653'
p5176
aS'hsa:654'
p5177
aS'hsa:656'
p5178
aS'hsa:7044'
p5179
aS'hsa:7050'
p5180
aS'hsa:8646'
p5181
aS'hsa:9241'
p5182
aS'hsa:10154'
p5183
aS'hsa:1020'
p5184
aS'hsa:10371'
p5185
aS'hsa:10500'
p5186
aS'hsa:10501'
p5187
aS'hsa:10505'
p5188
aS'hsa:10507'
p5189
aS'hsa:10509'
p5190
aS'hsa:10512'
p5191
aS'hsa:1072'
p5192
aS'hsa:1073'
p5193
aS'hsa:137970'
p5194
aS'hsa:1630'
p5195
aS'hsa:1808'
p5196
aS'hsa:1947'
p5197
aS'hsa:1948'
p5198
aS'hsa:1949'
p5199
aS'hsa:2041'
p5200
aS'hsa:2042'
p5201
aS'hsa:2043'
p5202
aS'hsa:2044'
p5203
aS'hsa:2045'
p5204
aS'hsa:2046'
p5205
aS'hsa:2047'
p5206
aS'hsa:2048'
p5207
aS'hsa:2049'
p5208
aS'hsa:2050'
p5209
aS'hsa:2051'
p5210
aS'hsa:219699'
p5211
aS'hsa:223117'
p5212
aS'hsa:2242'
p5213
aS'hsa:22854'
p5214
aS'hsa:22885'
p5215
aS'hsa:23380'
p5216
aS'hsa:23654'
p5217
aS'hsa:25791'
p5218
aS'hsa:27289'
p5219
aS'hsa:285220'
p5220
aS'hsa:29984'
p5221
aS'hsa:3897'
p5222
aS'hsa:3983'
p5223
aS'hsa:3984'
p5224
aS'hsa:3985'
p5225
aS'hsa:4917'
p5226
aS'hsa:5361'
p5227
aS'hsa:5362'
p5228
aS'hsa:5364'
p5229
aS'hsa:5365'
p5230
aS'hsa:54434'
p5231
aS'hsa:54437'
p5232
aS'hsa:54910'
p5233
aS'hsa:54961'
p5234
aS'hsa:55558'
p5235
aS'hsa:55740'
p5236
aS'hsa:56896'
p5237
aS'hsa:56920'
p5238
aS'hsa:57522'
p5239
aS'hsa:57556'
p5240
aS'hsa:57689'
p5241
aS'hsa:57715'
p5242
aS'hsa:59277'
p5243
aS'hsa:5998'
p5244
aS'hsa:6091'
p5245
aS'hsa:6092'
p5246
aS'hsa:6259'
p5247
aS'hsa:6405'
p5248
aS'hsa:64101'
p5249
aS'hsa:64218'
p5250
aS'hsa:64221'
p5251
aS'hsa:6585'
p5252
aS'hsa:6586'
p5253
aS'hsa:7220'
p5254
aS'hsa:7222'
p5255
aS'hsa:7223'
p5256
aS'hsa:7224'
p5257
aS'hsa:7869'
p5258
aS'hsa:80031'
p5259
aS'hsa:84448'
p5260
aS'hsa:84628'
p5261
aS'hsa:8482'
p5262
aS'hsa:85464'
p5263
aS'hsa:8633'
p5264
aS'hsa:8829'
p5265
aS'hsa:90249'
p5266
aS'hsa:9037'
p5267
aS'hsa:91584'
p5268
aS'hsa:9353'
p5269
aS'hsa:9423'
p5270
aS'hsa:9723'
p5271
aS'hsa:9901'
p5272
aS'hsa:9047'
p5273
aS'hsa:10014'
p5274
aS'hsa:1490'
p5275
aS'hsa:1958'
p5276
aS'hsa:4899'
p5277
aS'hsa:5327'
p5278
aS'hsa:7019'
p5279
aS'hsa:8862'
p5280
aS'hsa:9759'
p5281
aS'hsa:102725035'
p5282
aS'hsa:10288'
p5283
aS'hsa:10326'
p5284
aS'hsa:10859'
p5285
aS'hsa:10990'
p5286
aS'hsa:11006'
p5287
aS'hsa:11024'
p5288
aS'hsa:11025'
p5289
aS'hsa:11026'
p5290
aS'hsa:11027'
p5291
aS'hsa:126014'
p5292
aS'hsa:140885'
p5293
aS'hsa:2274'
p5294
aS'hsa:2354'
p5295
aS'hsa:23547'
p5296
aS'hsa:2355'
p5297
aS'hsa:27035'
p5298
aS'hsa:353514'
p5299
aS'hsa:3726'
p5300
aS'hsa:54209'
p5301
aS'hsa:55423'
p5302
aS'hsa:6688'
p5303
aS'hsa:7006'
p5304
aS'hsa:7305'
p5305
aS'hsa:79168'
p5306
aS'hsa:10207'
p5307
aS'hsa:10413'
p5308
aS'hsa:122786'
p5309
aS'hsa:126374'
p5310
aS'hsa:1495'
p5311
aS'hsa:1496'
p5312
aS'hsa:154796'
p5313
aS'hsa:166824'
p5314
aS'hsa:1739'
p5315
aS'hsa:174'
p5316
aS'hsa:1740'
p5317
aS'hsa:1741'
p5318
aS'hsa:1742'
p5319
aS'hsa:23286'
p5320
aS'hsa:23418'
p5321
aS'hsa:23513'
p5322
aS'hsa:25937'
p5323
aS'hsa:26524'
p5324
aS'hsa:286204'
p5325
aS'hsa:29119'
p5326
aS'hsa:3993'
p5327
aS'hsa:3996'
p5328
aS'hsa:4771'
p5329
aS'hsa:55233'
p5330
aS'hsa:60485'
p5331
aS'hsa:64398'
p5332
aS'hsa:6591'
p5333
aS'hsa:6657'
p5334
aS'hsa:7003'
p5335
aS'hsa:7004'
p5336
aS'hsa:7005'
p5337
aS'hsa:7159'
p5338
aS'hsa:79981'
p5339
aS'hsa:8463'
p5340
aS'hsa:84962'
p5341
aS'hsa:8994'
p5342
aS'hsa:9113'
p5343
aS'hsa:92597'
p5344
aS'hsa:54798'
p5345
aS'hsa:79633'
p5346
aS'hsa:83937'
p5347
aS'hsa:8642'
p5348
aS'hsa:9770'
p5349
aS'hsa:103910'
p5350
aS'hsa:10627'
p5351
aS'hsa:1729'
p5352
aS'hsa:1793'
p5353
aS'hsa:2909'
p5354
aS'hsa:29780'
p5355
aS'hsa:29895'
p5356
aS'hsa:394'
p5357
aS'hsa:4636'
p5358
aS'hsa:55742'
p5359
aS'hsa:58498'
p5360
aS'hsa:64098'
p5361
aS'hsa:7414'
p5362
aS'hsa:7791'
p5363
aS'hsa:81'
p5364
aS'hsa:87'
p5365
aS'hsa:93408'
p5366
aS'hsa:1605'
p5367
aS'hsa:22987'
p5368
aS'hsa:2811'
p5369
aS'hsa:2812'
p5370
aS'hsa:2814'
p5371
aS'hsa:2815'
p5372
aS'hsa:3161'
p5373
aS'hsa:3339'
p5374
aS'hsa:375790'
p5375
aS'hsa:51206'
p5376
aS'hsa:6382'
p5377
aS'hsa:6385'
p5378
aS'hsa:960'
p5379
aS'hsa:961'
p5380
aS'hsa:9899'
p5381
aS'hsa:9900'
p5382
aS'hsa:1000'
p5383
aS'hsa:1001'
p5384
aS'hsa:100132463'
p5385
aS'hsa:1002'
p5386
aS'hsa:1003'
p5387
aS'hsa:100506658'
p5388
aS'hsa:1013'
p5389
aS'hsa:102723996'
p5390
aS'hsa:105369247'
p5391
aS'hsa:10666'
p5392
aS'hsa:10686'
p5393
aS'hsa:1272'
p5394
aS'hsa:1364'
p5395
aS'hsa:1365'
p5396
aS'hsa:1366'
p5397
aS'hsa:137075'
p5398
aS'hsa:1462'
p5399
aS'hsa:1493'
p5400
aS'hsa:149461'
p5401
aS'hsa:201633'
p5402
aS'hsa:214'
p5403
aS'hsa:22829'
p5404
aS'hsa:22871'
p5405
aS'hsa:23114'
p5406
aS'hsa:23308'
p5407
aS'hsa:23562'
p5408
aS'hsa:23705'
p5409
aS'hsa:24146'
p5410
aS'hsa:257194'
p5411
aS'hsa:25945'
p5412
aS'hsa:26047'
p5413
aS'hsa:26285'
p5414
aS'hsa:2734'
p5415
aS'hsa:29126'
p5416
aS'hsa:29851'
p5417
aS'hsa:3384'
p5418
aS'hsa:3385'
p5419
aS'hsa:4099'
p5420
aS'hsa:4267'
p5421
aS'hsa:4359'
p5422
aS'hsa:4684'
p5423
aS'hsa:4685'
p5424
aS'hsa:4756'
p5425
aS'hsa:4897'
p5426
aS'hsa:49861'
p5427
aS'hsa:5010'
p5428
aS'hsa:50848'
p5429
aS'hsa:51208'
p5430
aS'hsa:5133'
p5431
aS'hsa:5175'
p5432
aS'hsa:53842'
p5433
aS'hsa:54413'
p5434
aS'hsa:57502'
p5435
aS'hsa:57555'
p5436
aS'hsa:57863'
p5437
aS'hsa:5788'
p5438
aS'hsa:5792'
p5439
aS'hsa:5797'
p5440
aS'hsa:5817'
p5441
aS'hsa:5818'
p5442
aS'hsa:5819'
p5443
aS'hsa:58494'
p5444
aS'hsa:6383'
p5445
aS'hsa:6401'
p5446
aS'hsa:6402'
p5447
aS'hsa:6403'
p5448
aS'hsa:6404'
p5449
aS'hsa:644672'
p5450
aS'hsa:6614'
p5451
aS'hsa:6693'
p5452
aS'hsa:6900'
p5453
aS'hsa:7122'
p5454
aS'hsa:79679'
p5455
aS'hsa:80380'
p5456
aS'hsa:80381'
p5457
aS'hsa:8174'
p5458
aS'hsa:83700'
p5459
aS'hsa:8506'
p5460
aS'hsa:9019'
p5461
aS'hsa:9071'
p5462
aS'hsa:9073'
p5463
aS'hsa:9074'
p5464
aS'hsa:9075'
p5465
aS'hsa:9076'
p5466
aS'hsa:9080'
p5467
aS'hsa:90952'
p5468
aS'hsa:914'
p5469
aS'hsa:920'
p5470
aS'hsa:923'
p5471
aS'hsa:925'
p5472
aS'hsa:926'
p5473
aS'hsa:933'
p5474
aS'hsa:9369'
p5475
aS'hsa:9378'
p5476
aS'hsa:9379'
p5477
aS'hsa:940'
p5478
aS'hsa:94030'
p5479
aS'hsa:941'
p5480
aS'hsa:942'
p5481
aS'hsa:947'
p5482
aS'hsa:965'
p5483
aS'hsa:9672'
p5484
aS'hsa:10163'
p5485
aS'hsa:10458'
p5486
aS'hsa:10810'
p5487
aS'hsa:117178'
p5488
aS'hsa:2241'
p5489
aS'hsa:4008'
p5490
aS'hsa:5770'
p5491
aS'hsa:5777'
p5492
aS'hsa:5787'
p5493
aS'hsa:5795'
p5494
aS'hsa:6615'
p5495
aS'hsa:7082'
p5496
aS'hsa:7525'
p5497
aS'hsa:81607'
p5498
aS'hsa:8826'
p5499
aS'hsa:8936'
p5500
aS'hsa:10096'
p5501
aS'hsa:10097'
p5502
aS'hsa:11149'
p5503
aS'hsa:11346'
p5504
aS'hsa:123720'
p5505
aS'hsa:150084'
p5506
aS'hsa:153562'
p5507
aS'hsa:154810'
p5508
aS'hsa:2017'
p5509
aS'hsa:22989'
p5510
aS'hsa:23370'
p5511
aS'hsa:27134'
p5512
aS'hsa:3059'
p5513
aS'hsa:3308'
p5514
aS'hsa:4478'
p5515
aS'hsa:4619'
p5516
aS'hsa:4620'
p5517
aS'hsa:4621'
p5518
aS'hsa:4622'
p5519
aS'hsa:4626'
p5520
aS'hsa:4627'
p5521
aS'hsa:4628'
p5522
aS'hsa:51421'
p5523
aS'hsa:51762'
p5524
aS'hsa:54566'
p5525
aS'hsa:55114'
p5526
aS'hsa:57180'
p5527
aS'hsa:57530'
p5528
aS'hsa:57644'
p5529
aS'hsa:57826'
p5530
aS'hsa:58538'
p5531
aS'hsa:5872'
p5532
aS'hsa:5962'
p5533
aS'hsa:653857'
p5534
aS'hsa:7430'
p5535
aS'hsa:79778'
p5536
aS'hsa:79784'
p5537
aS'hsa:84952'
p5538
aS'hsa:8531'
p5539
aS'hsa:861'
p5540
aS'hsa:8735'
p5541
aS'hsa:8777'
p5542
aS'hsa:909'
p5543
aS'hsa:910'
p5544
aS'hsa:911'
p5545
aS'hsa:912'
p5546
aS'hsa:913'
p5547
aS'hsa:9181'
p5548
aS'hsa:91862'
p5549
aS'hsa:92359'
p5550
aS'hsa:93643'
p5551
aS'hsa:9368'
p5552
aS'hsa:9414'
p5553
aS'hsa:2697'
p5554
aS'hsa:57369'
p5555
aS'hsa:100532731'
p5556
aS'hsa:10336'
p5557
aS'hsa:1749'
p5558
aS'hsa:2103'
p5559
aS'hsa:3175'
p5560
aS'hsa:3211'
p5561
aS'hsa:3670'
p5562
aS'hsa:3720'
p5563
aS'hsa:4211'
p5564
aS'hsa:4617'
p5565
aS'hsa:463'
p5566
aS'hsa:4762'
p5567
aS'hsa:5013'
p5568
aS'hsa:5080'
p5569
aS'hsa:5460'
p5570
aS'hsa:5462'
p5571
aS'hsa:55183'
p5572
aS'hsa:56916'
p5573
aS'hsa:5978'
p5574
aS'hsa:64211'
p5575
aS'hsa:648'
p5576
aS'hsa:6498'
p5577
aS'hsa:6926'
p5578
aS'hsa:6927'
p5579
aS'hsa:6929'
p5580
aS'hsa:7547'
p5581
aS'hsa:7703'
p5582
aS'hsa:79923'
p5583
aS'hsa:7994'
p5584
aS'hsa:80712'
p5585
aS'hsa:84108'
p5586
aS'hsa:84333'
p5587
aS'hsa:84759'
p5588
aS'hsa:8820'
p5589
aS'hsa:9314'
p5590
aS'hsa:9421'
p5591
aS'hsa:10544'
p5592
aS'hsa:10747'
p5593
aS'hsa:11326'
p5594
aS'hsa:1191'
p5595
aS'hsa:1361'
p5596
aS'hsa:1378'
p5597
aS'hsa:1380'
p5598
aS'hsa:1604'
p5599
aS'hsa:1675'
p5600
aS'hsa:2'
p5601
aS'hsa:2152'
p5602
aS'hsa:2153'
p5603
aS'hsa:2155'
p5604
aS'hsa:2157'
p5605
aS'hsa:2158'
p5606
aS'hsa:2159'
p5607
aS'hsa:2160'
p5608
aS'hsa:2161'
p5609
aS'hsa:2162'
p5610
aS'hsa:2165'
p5611
aS'hsa:2243'
p5612
aS'hsa:2244'
p5613
aS'hsa:2266'
p5614
aS'hsa:3053'
p5615
aS'hsa:3075'
p5616
aS'hsa:3426'
p5617
aS'hsa:3687'
p5618
aS'hsa:3818'
p5619
aS'hsa:3827'
p5620
aS'hsa:4179'
p5621
aS'hsa:462'
p5622
aS'hsa:5055'
p5623
aS'hsa:5104'
p5624
aS'hsa:5265'
p5625
aS'hsa:5329'
p5626
aS'hsa:5345'
p5627
aS'hsa:5624'
p5628
aS'hsa:5627'
p5629
aS'hsa:5648'
p5630
aS'hsa:629'
p5631
aS'hsa:7035'
p5632
aS'hsa:7056'
p5633
aS'hsa:710'
p5634
aS'hsa:712'
p5635
aS'hsa:713'
p5636
aS'hsa:714'
p5637
aS'hsa:716'
p5638
aS'hsa:717'
p5639
aS'hsa:720'
p5640
aS'hsa:721'
p5641
aS'hsa:722'
p5642
aS'hsa:725'
p5643
aS'hsa:727'
p5644
aS'hsa:729'
p5645
aS'hsa:730'
p5646
aS'hsa:731'
p5647
aS'hsa:732'
p5648
aS'hsa:733'
p5649
aS'hsa:735'
p5650
aS'hsa:966'
p5651
aS'hsa:1281'
p5652
aS'hsa:64805'
p5653
aS'hsa:83706'
p5654
aS'hsa:100132285'
p5655
aS'hsa:10437'
p5656
aS'hsa:115653'
p5657
aS'hsa:3806'
p5658
aS'hsa:3808'
p5659
aS'hsa:3809'
p5660
aS'hsa:3810'
p5661
aS'hsa:3811'
p5662
aS'hsa:3812'
p5663
aS'hsa:3821'
p5664
aS'hsa:3822'
p5665
aS'hsa:3823'
p5666
aS'hsa:3824'
p5667
aS'hsa:4261'
p5668
aS'hsa:4800'
p5669
aS'hsa:4801'
p5670
aS'hsa:4802'
p5671
aS'hsa:567'
p5672
aS'hsa:5993'
p5673
aS'hsa:5994'
p5674
aS'hsa:6892'
p5675
aS'hsa:8302'
p5676
aS'hsa:8625'
p5677
aS'hsa:972'
p5678
aS'hsa:10159'
p5679
aS'hsa:116512'
p5680
aS'hsa:1215'
p5681
aS'hsa:1359'
p5682
aS'hsa:1636'
p5683
aS'hsa:183'
p5684
aS'hsa:2028'
p5685
aS'hsa:3816'
p5686
aS'hsa:3817'
p5687
aS'hsa:4012'
p5688
aS'hsa:4311'
p5689
aS'hsa:5547'
p5690
aS'hsa:5550'
p5691
aS'hsa:57486'
p5692
aS'hsa:59272'
p5693
aS'hsa:5972'
p5694
aS'hsa:7064'
p5695
aS'hsa:3661'
p5696
aS'hsa:3663'
p5697
aS'hsa:3665'
p5698
aS'hsa:51284'
p5699
aS'hsa:51311'
p5700
aS'hsa:54106'
p5701
aS'hsa:54472'
p5702
aS'hsa:7096'
p5703
aS'hsa:7100'
p5704
aS'hsa:9641'
p5705
aS'hsa:10010'
p5706
aS'hsa:10392'
p5707
aS'hsa:10628'
p5708
aS'hsa:107181291'
p5709
aS'hsa:10910'
p5710
aS'hsa:114769'
p5711
aS'hsa:115361'
p5712
aS'hsa:115362'
p5713
aS'hsa:118429'
p5714
aS'hsa:140609'
p5715
aS'hsa:152138'
p5716
aS'hsa:171389'
p5717
aS'hsa:199713'
p5718
aS'hsa:222545'
p5719
aS'hsa:22861'
p5720
aS'hsa:22900'
p5721
aS'hsa:24145'
p5722
aS'hsa:25828'
p5723
aS'hsa:260434'
p5724
aS'hsa:2633'
p5725
aS'hsa:2634'
p5726
aS'hsa:2635'
p5727
aS'hsa:340061'
p5728
aS'hsa:3428'
p5729
aS'hsa:388646'
p5730
aS'hsa:4210'
p5731
aS'hsa:440068'
p5732
aS'hsa:4671'
p5733
aS'hsa:4938'
p5734
aS'hsa:4939'
p5735
aS'hsa:4940'
p5736
aS'hsa:51393'
p5737
aS'hsa:55914'
p5738
aS'hsa:56919'
p5739
aS'hsa:57506'
p5740
aS'hsa:58484'
p5741
aS'hsa:59082'
p5742
aS'hsa:6041'
p5743
aS'hsa:64127'
p5744
aS'hsa:64170'
p5745
aS'hsa:7158'
p5746
aS'hsa:7205'
p5747
aS'hsa:7226'
p5748
aS'hsa:7295'
p5749
aS'hsa:79671'
p5750
aS'hsa:79792'
p5751
aS'hsa:820'
p5752
aS'hsa:837'
p5753
aS'hsa:838'
p5754
aS'hsa:84168'
p5755
aS'hsa:846'
p5756
aS'hsa:84674'
p5757
aS'hsa:8767'
p5758
aS'hsa:9051'
p5759
aS'hsa:91662'
p5760
aS'hsa:9447'
p5761
aS'hsa:1654'
p5762
aS'hsa:5300'
p5763
aS'hsa:54941'
p5764
aS'hsa:55593'
p5765
aS'hsa:64135'
p5766
aS'hsa:64343'
p5767
aS'hsa:79132'
p5768
aS'hsa:80143'
p5769
aS'hsa:9636'
p5770
aS'hsa:9755'
p5771
aS'hsa:103'
p5772
aS'hsa:11277'
p5773
aS'hsa:115004'
p5774
aS'hsa:1154'
p5775
aS'hsa:122809'
p5776
aS'hsa:2273'
p5777
aS'hsa:2670'
p5778
aS'hsa:30837'
p5779
aS'hsa:3598'
p5780
aS'hsa:5292'
p5781
aS'hsa:5771'
p5782
aS'hsa:8835'
p5783
aS'hsa:9306'
p5784
aS'hsa:9466'
p5785
aS'hsa:9655'
p5786
aS'hsa:100133941'
p5787
aS'hsa:2208'
p5788
aS'hsa:2993'
p5789
aS'hsa:915'
p5790
aS'hsa:916'
p5791
aS'hsa:917'
p5792
aS'hsa:921'
p5793
aS'hsa:924'
p5794
aS'hsa:928'
p5795
aS'hsa:931'
p5796
aS'hsa:945'
p5797
aS'hsa:951'
p5798
aS'hsa:100507436'
p5799
aS'hsa:100528032'
p5800
aS'hsa:10870'
p5801
aS'hsa:117157'
p5802
aS'hsa:135250'
p5803
aS'hsa:154064'
p5804
aS'hsa:22914'
p5805
aS'hsa:259197'
p5806
aS'hsa:353091'
p5807
aS'hsa:4068'
p5808
aS'hsa:4277'
p5809
aS'hsa:51744'
p5810
aS'hsa:6452'
p5811
aS'hsa:79465'
p5812
aS'hsa:80328'
p5813
aS'hsa:80329'
p5814
aS'hsa:919'
p5815
aS'hsa:9436'
p5816
aS'hsa:9437'
p5817
aS'hsa:962'
p5818
aS'hsa:100289462'
p5819
aS'hsa:1051'
p5820
aS'hsa:1673'
p5821
aS'hsa:225689'
p5822
aS'hsa:29761'
p5823
aS'hsa:3934'
p5824
aS'hsa:4314'
p5825
aS'hsa:4322'
p5826
aS'hsa:4586'
p5827
aS'hsa:5596'
p5828
aS'hsa:5597'
p5829
aS'hsa:6278'
p5830
aS'hsa:6279'
p5831
aS'hsa:6280'
p5832
aS'hsa:727897'
p5833
aS'hsa:9618'
p5834
aS'hsa:2625'
p5835
aS'hsa:30009'
p5836
aS'hsa:4094'
p5837
aS'hsa:4794'
p5838
aS'hsa:864'
p5839
aS'hsa:196'
p5840
aS'hsa:3662'
p5841
aS'hsa:50943'
p5842
aS'hsa:5914'
p5843
aS'hsa:6095'
p5844
aS'hsa:6097'
p5845
aS'hsa:9402'
p5846
aS'hsa:27071'
p5847
aS'hsa:8519'
p5848
aS'hsa:971'
p5849
aS'hsa:973'
p5850
aS'hsa:974'
p5851
aS'hsa:975'
p5852
aS'hsa:241'
p5853
aS'hsa:2934'
p5854
aS'hsa:4082'
p5855
aS'hsa:4651'
p5856
aS'hsa:65108'
p5857
aS'hsa:85477'
p5858
aS'hsa:4323'
p5859
aS'hsa:602'
p5860
aS'hsa:9530'
p5861
aS'hsa:399'
p5862
aS'hsa:7070'
p5863
aS'hsa:7294'
p5864
aS'hsa:5284'
p5865
aS'hsa:57379'
p5866
aS'hsa:1407'
p5867
aS'hsa:1408'
p5868
aS'hsa:26224'
p5869
aS'hsa:406'
p5870
aS'hsa:4862'
p5871
aS'hsa:5187'
p5872
aS'hsa:6096'
p5873
aS'hsa:79365'
p5874
aS'hsa:8553'
p5875
aS'hsa:8863'
p5876
aS'hsa:8864'
p5877
aS'hsa:9572'
p5878
aS'hsa:9575'
p5879
aS'hsa:3760'
p5880
aS'hsa:3762'
p5881
aS'hsa:3763'
p5882
aS'hsa:3765'
p5883
aS'hsa:51655'
p5884
aS'hsa:9722'
p5885
aS'hsa:10497'
p5886
aS'hsa:10814'
p5887
aS'hsa:10815'
p5888
aS'hsa:140679'
p5889
aS'hsa:22999'
p5890
aS'hsa:23025'
p5891
aS'hsa:246213'
p5892
aS'hsa:339302'
p5893
aS'hsa:440279'
p5894
aS'hsa:4905'
p5895
aS'hsa:57030'
p5896
aS'hsa:57084'
p5897
aS'hsa:5864'
p5898
aS'hsa:594855'
p5899
aS'hsa:6570'
p5900
aS'hsa:6571'
p5901
aS'hsa:6572'
p5902
aS'hsa:6616'
p5903
aS'hsa:6812'
p5904
aS'hsa:6857'
p5905
aS'hsa:8775'
p5906
aS'hsa:10019'
p5907
aS'hsa:10603'
p5908
aS'hsa:10782'
p5909
aS'hsa:10818'
p5910
aS'hsa:11108'
p5911
aS'hsa:11213'
p5912
aS'hsa:25970'
p5913
aS'hsa:27018'
p5914
aS'hsa:3656'
p5915
aS'hsa:396'
p5916
aS'hsa:397'
p5917
aS'hsa:398'
p5918
aS'hsa:4145'
p5919
aS'hsa:4916'
p5920
aS'hsa:57498'
p5921
aS'hsa:9500'
p5922
aS'hsa:2166'
p5923
aS'hsa:221955'
p5924
aS'hsa:222236'
p5925
aS'hsa:57406'
p5926
aS'hsa:747'
p5927
aS'hsa:10991'
p5928
aS'hsa:22941'
p5929
aS'hsa:50944'
p5930
aS'hsa:54407'
p5931
aS'hsa:6505'
p5932
aS'hsa:6506'
p5933
aS'hsa:6507'
p5934
aS'hsa:6511'
p5935
aS'hsa:6512'
p5936
aS'hsa:81539'
p5937
aS'hsa:85358'
p5938
aS'hsa:9229'
p5939
aS'hsa:3759'
p5940
aS'hsa:3761'
p5941
aS'hsa:3768'
p5942
aS'hsa:3770'
p5943
aS'hsa:3785'
p5944
aS'hsa:3786'
p5945
aS'hsa:56479'
p5946
aS'hsa:60482'
p5947
aS'hsa:9132'
p5948
aS'hsa:170572'
p5949
aS'hsa:200909'
p5950
aS'hsa:260293'
p5951
aS'hsa:285242'
p5952
aS'hsa:3359'
p5953
aS'hsa:351'
p5954
aS'hsa:3751'
p5955
aS'hsa:3781'
p5956
aS'hsa:6532'
p5957
aS'hsa:9177'
p5958
aS'hsa:5334'
p5959
aS'hsa:57468'
p5960
aS'hsa:6529'
p5961
aS'hsa:6538'
p5962
aS'hsa:6540'
p5963
aS'hsa:9001'
p5964
aS'hsa:92745'
p5965
aS'hsa:50632'
p5966
aS'hsa:6323'
p5967
aS'hsa:6531'
p5968
aS'hsa:10842'
p5969
aS'hsa:1392'
p5970
aS'hsa:2781'
p5971
aS'hsa:102723532'
p5972
aS'hsa:105369274'
p5973
aS'hsa:10798'
p5974
aS'hsa:119678'
p5975
aS'hsa:119679'
p5976
aS'hsa:119682'
p5977
aS'hsa:119687'
p5978
aS'hsa:119692'
p5979
aS'hsa:119694'
p5980
aS'hsa:119695'
p5981
aS'hsa:119749'
p5982
aS'hsa:119764'
p5983
aS'hsa:119765'
p5984
aS'hsa:119772'
p5985
aS'hsa:119774'
p5986
aS'hsa:120065'
p5987
aS'hsa:120066'
p5988
aS'hsa:120586'
p5989
aS'hsa:120775'
p5990
aS'hsa:120776'
p5991
aS'hsa:120787'
p5992
aS'hsa:120793'
p5993
aS'hsa:120796'
p5994
aS'hsa:121129'
p5995
aS'hsa:121130'
p5996
aS'hsa:121275'
p5997
aS'hsa:121364'
p5998
aS'hsa:122740'
p5999
aS'hsa:122742'
p6000
aS'hsa:122748'
p6001
aS'hsa:123041'
p6002
aS'hsa:124538'
p6003
aS'hsa:125958'
p6004
aS'hsa:125962'
p6005
aS'hsa:125963'
p6006
aS'hsa:126370'
p6007
aS'hsa:126541'
p6008
aS'hsa:127059'
p6009
aS'hsa:127062'
p6010
aS'hsa:127064'
p6011
aS'hsa:127066'
p6012
aS'hsa:127068'
p6013
aS'hsa:127069'
p6014
aS'hsa:127074'
p6015
aS'hsa:127077'
p6016
aS'hsa:127385'
p6017
aS'hsa:127623'
p6018
aS'hsa:128360'
p6019
aS'hsa:128366'
p6020
aS'hsa:128367'
p6021
aS'hsa:128368'
p6022
aS'hsa:128371'
p6023
aS'hsa:128372'
p6024
aS'hsa:130075'
p6025
aS'hsa:134083'
p6026
aS'hsa:135924'
p6027
aS'hsa:135941'
p6028
aS'hsa:135946'
p6029
aS'hsa:135948'
p6030
aS'hsa:138799'
p6031
aS'hsa:138802'
p6032
aS'hsa:138803'
p6033
aS'hsa:138804'
p6034
aS'hsa:138805'
p6035
aS'hsa:138881'
p6036
aS'hsa:138882'
p6037
aS'hsa:138883'
p6038
aS'hsa:143496'
p6039
aS'hsa:143502'
p6040
aS'hsa:143503'
p6041
aS'hsa:144124'
p6042
aS'hsa:144125'
p6043
aS'hsa:150681'
p6044
aS'hsa:158131'
p6045
aS'hsa:162998'
p6046
aS'hsa:196335'
p6047
aS'hsa:219417'
p6048
aS'hsa:219428'
p6049
aS'hsa:219429'
p6050
aS'hsa:219431'
p6051
aS'hsa:219432'
p6052
aS'hsa:219436'
p6053
aS'hsa:219437'
p6054
aS'hsa:219438'
p6055
aS'hsa:219447'
p6056
aS'hsa:219453'
p6057
aS'hsa:219464'
p6058
aS'hsa:219469'
p6059
aS'hsa:219473'
p6060
aS'hsa:219477'
p6061
aS'hsa:219479'
p6062
aS'hsa:219482'
p6063
aS'hsa:219484'
p6064
aS'hsa:219487'
p6065
aS'hsa:219493'
p6066
aS'hsa:219858'
p6067
aS'hsa:219865'
p6068
aS'hsa:219869'
p6069
aS'hsa:219870'
p6070
aS'hsa:219873'
p6071
aS'hsa:219874'
p6072
aS'hsa:219875'
p6073
aS'hsa:219952'
p6074
aS'hsa:219954'
p6075
aS'hsa:219956'
p6076
aS'hsa:219957'
p6077
aS'hsa:219958'
p6078
aS'hsa:219959'
p6079
aS'hsa:219960'
p6080
aS'hsa:219965'
p6081
aS'hsa:219968'
p6082
aS'hsa:219981'
p6083
aS'hsa:219982'
p6084
aS'hsa:219983'
p6085
aS'hsa:219986'
p6086
aS'hsa:23538'
p6087
aS'hsa:254783'
p6088
aS'hsa:254786'
p6089
aS'hsa:254879'
p6090
aS'hsa:254973'
p6091
aS'hsa:255725'
p6092
aS'hsa:256144'
p6093
aS'hsa:256148'
p6094
aS'hsa:256892'
p6095
aS'hsa:26188'
p6096
aS'hsa:26189'
p6097
aS'hsa:26211'
p6098
aS'hsa:26212'
p6099
aS'hsa:26219'
p6100
aS'hsa:26245'
p6101
aS'hsa:26246'
p6102
aS'hsa:26248'
p6103
aS'hsa:26333'
p6104
aS'hsa:26338'
p6105
aS'hsa:26339'
p6106
aS'hsa:26341'
p6107
aS'hsa:26476'
p6108
aS'hsa:26492'
p6109
aS'hsa:26493'
p6110
aS'hsa:26494'
p6111
aS'hsa:26496'
p6112
aS'hsa:26529'
p6113
aS'hsa:26531'
p6114
aS'hsa:26532'
p6115
aS'hsa:26533'
p6116
aS'hsa:26534'
p6117
aS'hsa:26538'
p6118
aS'hsa:26539'
p6119
aS'hsa:26595'
p6120
aS'hsa:26648'
p6121
aS'hsa:26658'
p6122
aS'hsa:26659'
p6123
aS'hsa:26664'
p6124
aS'hsa:26682'
p6125
aS'hsa:26683'
p6126
aS'hsa:26686'
p6127
aS'hsa:26687'
p6128
aS'hsa:26689'
p6129
aS'hsa:26692'
p6130
aS'hsa:26693'
p6131
aS'hsa:26696'
p6132
aS'hsa:26707'
p6133
aS'hsa:26716'
p6134
aS'hsa:26735'
p6135
aS'hsa:26737'
p6136
aS'hsa:26740'
p6137
aS'hsa:282763'
p6138
aS'hsa:282770'
p6139
aS'hsa:282775'
p6140
aS'hsa:283092'
p6141
aS'hsa:283093'
p6142
aS'hsa:283111'
p6143
aS'hsa:283159'
p6144
aS'hsa:283160'
p6145
aS'hsa:283162'
p6146
aS'hsa:283189'
p6147
aS'hsa:283297'
p6148
aS'hsa:283365'
p6149
aS'hsa:283694'
p6150
aS'hsa:284383'
p6151
aS'hsa:284433'
p6152
aS'hsa:284521'
p6153
aS'hsa:284532'
p6154
aS'hsa:285659'
p6155
aS'hsa:286362'
p6156
aS'hsa:286365'
p6157
aS'hsa:338662'
p6158
aS'hsa:338674'
p6159
aS'hsa:338675'
p6160
aS'hsa:338751'
p6161
aS'hsa:338755'
p6162
aS'hsa:340980'
p6163
aS'hsa:341152'
p6164
aS'hsa:341276'
p6165
aS'hsa:341416'
p6166
aS'hsa:341418'
p6167
aS'hsa:341568'
p6168
aS'hsa:341799'
p6169
aS'hsa:343169'
p6170
aS'hsa:343171'
p6171
aS'hsa:343172'
p6172
aS'hsa:343173'
p6173
aS'hsa:343406'
p6174
aS'hsa:343563'
p6175
aS'hsa:346517'
p6176
aS'hsa:346525'
p6177
aS'hsa:346528'
p6178
aS'hsa:347168'
p6179
aS'hsa:347169'
p6180
aS'hsa:347468'
p6181
aS'hsa:387748'
p6182
aS'hsa:389090'
p6183
aS'hsa:390036'
p6184
aS'hsa:390037'
p6185
aS'hsa:390038'
p6186
aS'hsa:390054'
p6187
aS'hsa:390058'
p6188
aS'hsa:390059'
p6189
aS'hsa:390061'
p6190
aS'hsa:390063'
p6191
aS'hsa:390064'
p6192
aS'hsa:390066'
p6193
aS'hsa:390067'
p6194
aS'hsa:390072'
p6195
aS'hsa:390075'
p6196
aS'hsa:390077'
p6197
aS'hsa:390078'
p6198
aS'hsa:390079'
p6199
aS'hsa:390081'
p6200
aS'hsa:390083'
p6201
aS'hsa:390084'
p6202
aS'hsa:390093'
p6203
aS'hsa:390113'
p6204
aS'hsa:390142'
p6205
aS'hsa:390144'
p6206
aS'hsa:390148'
p6207
aS'hsa:390151'
p6208
aS'hsa:390152'
p6209
aS'hsa:390154'
p6210
aS'hsa:390155'
p6211
aS'hsa:390157'
p6212
aS'hsa:390162'
p6213
aS'hsa:390167'
p6214
aS'hsa:390168'
p6215
aS'hsa:390174'
p6216
aS'hsa:390181'
p6217
aS'hsa:390190'
p6218
aS'hsa:390191'
p6219
aS'hsa:390195'
p6220
aS'hsa:390197'
p6221
aS'hsa:390199'
p6222
aS'hsa:390201'
p6223
aS'hsa:390260'
p6224
aS'hsa:390261'
p6225
aS'hsa:390264'
p6226
aS'hsa:390265'
p6227
aS'hsa:390271'
p6228
aS'hsa:390275'
p6229
aS'hsa:390321'
p6230
aS'hsa:390323'
p6231
aS'hsa:390326'
p6232
aS'hsa:390327'
p6233
aS'hsa:390429'
p6234
aS'hsa:390431'
p6235
aS'hsa:390433'
p6236
aS'hsa:390436'
p6237
aS'hsa:390437'
p6238
aS'hsa:390439'
p6239
aS'hsa:390442'
p6240
aS'hsa:390445'
p6241
aS'hsa:390538'
p6242
aS'hsa:390648'
p6243
aS'hsa:390649'
p6244
aS'hsa:390882'
p6245
aS'hsa:390883'
p6246
aS'hsa:390892'
p6247
aS'hsa:391107'
p6248
aS'hsa:391109'
p6249
aS'hsa:391112'
p6250
aS'hsa:391114'
p6251
aS'hsa:391189'
p6252
aS'hsa:391190'
p6253
aS'hsa:391191'
p6254
aS'hsa:391192'
p6255
aS'hsa:391194'
p6256
aS'hsa:391195'
p6257
aS'hsa:391196'
p6258
aS'hsa:391211'
p6259
aS'hsa:392138'
p6260
aS'hsa:392309'
p6261
aS'hsa:392376'
p6262
aS'hsa:392390'
p6263
aS'hsa:392391'
p6264
aS'hsa:392392'
p6265
aS'hsa:393046'
p6266
aS'hsa:401427'
p6267
aS'hsa:401665'
p6268
aS'hsa:401666'
p6269
aS'hsa:401667'
p6270
aS'hsa:401992'
p6271
aS'hsa:401993'
p6272
aS'hsa:401994'
p6273
aS'hsa:402135'
p6274
aS'hsa:402317'
p6275
aS'hsa:403239'
p6276
aS'hsa:403253'
p6277
aS'hsa:403257'
p6278
aS'hsa:403273'
p6279
aS'hsa:403274'
p6280
aS'hsa:403277'
p6281
aS'hsa:403278'
p6282
aS'hsa:403282'
p6283
aS'hsa:403284'
p6284
aS'hsa:440153'
p6285
aS'hsa:441308'
p6286
aS'hsa:441608'
p6287
aS'hsa:441639'
p6288
aS'hsa:441669'
p6289
aS'hsa:441670'
p6290
aS'hsa:441911'
p6291
aS'hsa:441933'
p6292
aS'hsa:442184'
p6293
aS'hsa:442186'
p6294
aS'hsa:442191'
p6295
aS'hsa:442194'
p6296
aS'hsa:442361'
p6297
aS'hsa:4991'
p6298
aS'hsa:4992'
p6299
aS'hsa:4993'
p6300
aS'hsa:4994'
p6301
aS'hsa:4995'
p6302
aS'hsa:504189'
p6303
aS'hsa:504190'
p6304
aS'hsa:504191'
p6305
aS'hsa:56656'
p6306
aS'hsa:57101'
p6307
aS'hsa:729759'
p6308
aS'hsa:79290'
p6309
aS'hsa:79295'
p6310
aS'hsa:79310'
p6311
aS'hsa:79317'
p6312
aS'hsa:7932'
p6313
aS'hsa:79324'
p6314
aS'hsa:79339'
p6315
aS'hsa:79345'
p6316
aS'hsa:79473'
p6317
aS'hsa:79501'
p6318
aS'hsa:79541'
p6319
aS'hsa:79544'
p6320
aS'hsa:81050'
p6321
aS'hsa:81061'
p6322
aS'hsa:81099'
p6323
aS'hsa:81127'
p6324
aS'hsa:81168'
p6325
aS'hsa:81282'
p6326
aS'hsa:81285'
p6327
aS'hsa:81300'
p6328
aS'hsa:81309'
p6329
aS'hsa:81318'
p6330
aS'hsa:81327'
p6331
aS'hsa:81328'
p6332
aS'hsa:81341'
p6333
aS'hsa:81392'
p6334
aS'hsa:81399'
p6335
aS'hsa:81442'
p6336
aS'hsa:81448'
p6337
aS'hsa:81466'
p6338
aS'hsa:81469'
p6339
aS'hsa:81470'
p6340
aS'hsa:81472'
p6341
aS'hsa:81696'
p6342
aS'hsa:81697'
p6343
aS'hsa:81797'
p6344
aS'hsa:8383'
p6345
aS'hsa:8386'
p6346
aS'hsa:8387'
p6347
aS'hsa:8388'
p6348
aS'hsa:8390'
p6349
aS'hsa:8392'
p6350
aS'hsa:83988'
p6351
aS'hsa:8590'
p6352
aS'hsa:255022'
p6353
aS'hsa:259285'
p6354
aS'hsa:259286'
p6355
aS'hsa:259287'
p6356
aS'hsa:259289'
p6357
aS'hsa:259290'
p6358
aS'hsa:259291'
p6359
aS'hsa:259292'
p6360
aS'hsa:259293'
p6361
aS'hsa:259294'
p6362
aS'hsa:259295'
p6363
aS'hsa:259296'
p6364
aS'hsa:29850'
p6365
aS'hsa:338398'
p6366
aS'hsa:342372'
p6367
aS'hsa:346562'
p6368
aS'hsa:353164'
p6369
aS'hsa:40'
p6370
aS'hsa:50831'
p6371
aS'hsa:50832'
p6372
aS'hsa:50833'
p6373
aS'hsa:50834'
p6374
aS'hsa:50835'
p6375
aS'hsa:50836'
p6376
aS'hsa:50837'
p6377
aS'hsa:50838'
p6378
aS'hsa:50839'
p6379
aS'hsa:50840'
p6380
aS'hsa:54429'
p6381
aS'hsa:5726'
p6382
aS'hsa:6326'
p6383
aS'hsa:6328'
p6384
aS'hsa:6335'
p6385
aS'hsa:6337'
p6386
aS'hsa:6338'
p6387
aS'hsa:6340'
p6388
aS'hsa:80834'
p6389
aS'hsa:80835'
p6390
aS'hsa:83756'
p6391
aS'hsa:8645'
p6392
aS'hsa:9033'
p6393
aS'hsa:2779'
p6394
aS'hsa:2780'
p6395
aS'hsa:2978'
p6396
aS'hsa:2979'
p6397
aS'hsa:5957'
p6398
aS'hsa:6010'
p6399
aS'hsa:6295'
p6400
aS'hsa:8787'
p6401
aS'hsa:9187'
p6402
aS'hsa:9626'
p6403
aS'hsa:162514'
p6404
aS'hsa:41'
p6405
aS'hsa:51802'
p6406
aS'hsa:55515'
p6407
aS'hsa:79054'
p6408
aS'hsa:8989'
p6409
aS'hsa:9311'
p6410
aS'hsa:10152'
p6411
aS'hsa:10787'
p6412
aS'hsa:10788'
p6413
aS'hsa:128239'
p6414
aS'hsa:1730'
p6415
aS'hsa:221178'
p6416
aS'hsa:2245'
p6417
aS'hsa:3071'
p6418
aS'hsa:3645'
p6419
aS'hsa:3681'
p6420
aS'hsa:3682'
p6421
aS'hsa:50649'
p6422
aS'hsa:55845'
p6423
aS'hsa:7114'
p6424
aS'hsa:81624'
p6425
aS'hsa:8874'
p6426
aS'hsa:89846'
p6427
aS'hsa:9087'
p6428
aS'hsa:9459'
p6429
aS'hsa:10211'
p6430
aS'hsa:2319'
p6431
aS'hsa:23265'
p6432
aS'hsa:23433'
p6433
aS'hsa:5506'
p6434
aS'hsa:5507'
p6435
aS'hsa:5509'
p6436
aS'hsa:5573'
p6437
aS'hsa:5575'
p6438
aS'hsa:5576'
p6439
aS'hsa:5577'
p6440
aS'hsa:79660'
p6441
aS'hsa:89801'
p6442
aS'hsa:90673'
p6443
aS'hsa:9322'
p6444
aS'hsa:116'
p6445
aS'hsa:2641'
p6446
aS'hsa:2695'
p6447
aS'hsa:27445'
p6448
aS'hsa:2864'
p6449
aS'hsa:3651'
p6450
aS'hsa:3767'
p6451
aS'hsa:3780'
p6452
aS'hsa:3782'
p6453
aS'hsa:3783'
p6454
aS'hsa:54795'
p6455
aS'hsa:6514'
p6456
aS'hsa:9699'
p6457
aS'hsa:2796'
p6458
aS'hsa:2797'
p6459
aS'hsa:2661'
p6460
aS'hsa:6770'
p6461
aS'hsa:9210'
p6462
aS'hsa:3835'
p6463
aS'hsa:6793'
p6464
aS'hsa:2288'
p6465
aS'hsa:2289'
p6466
aS'hsa:434'
p6467
aS'hsa:5443'
p6468
aS'hsa:1447'
p6469
aS'hsa:2001'
p6470
aS'hsa:3659'
p6471
aS'hsa:213'
p6472
aS'hsa:389434'
p6473
aS'hsa:405753'
p6474
aS'hsa:432'
p6475
aS'hsa:433'
p6476
aS'hsa:50506'
p6477
aS'hsa:5172'
p6478
aS'hsa:6528'
p6479
aS'hsa:6906'
p6480
aS'hsa:7038'
p6481
aS'hsa:7270'
p6482
aS'hsa:7276'
p6483
aS'hsa:7849'
p6484
aS'hsa:8458'
p6485
aS'hsa:10025'
p6486
aS'hsa:10231'
p6487
aS'hsa:10499'
p6488
aS'hsa:116931'
p6489
aS'hsa:117247'
p6490
aS'hsa:1733'
p6491
aS'hsa:1734'
p6492
aS'hsa:1735'
p6493
aS'hsa:1827'
p6494
aS'hsa:23389'
p6495
aS'hsa:25942'
p6496
aS'hsa:29079'
p6497
aS'hsa:53919'
p6498
aS'hsa:6567'
p6499
aS'hsa:8648'
p6500
aS'hsa:8841'
p6501
aS'hsa:90390'
p6502
aS'hsa:9282'
p6503
aS'hsa:9440'
p6504
aS'hsa:9442'
p6505
aS'hsa:9862'
p6506
aS'hsa:9882'
p6507
aS'hsa:9968'
p6508
aS'hsa:9969'
p6509
aS'hsa:181'
p6510
aS'hsa:5020'
p6511
aS'hsa:57118'
p6512
aS'hsa:57172'
p6513
aS'hsa:8536'
p6514
aS'hsa:102724428'
p6515
aS'hsa:150094'
p6516
aS'hsa:23235'
p6517
aS'hsa:5531'
p6518
aS'hsa:55671'
p6519
aS'hsa:57223'
p6520
aS'hsa:51099'
p6521
aS'hsa:1179'
p6522
aS'hsa:22802'
p6523
aS'hsa:358'
p6524
aS'hsa:9635'
p6525
aS'hsa:3777'
p6526
aS'hsa:466'
p6527
aS'hsa:4929'
p6528
aS'hsa:51305'
p6529
aS'hsa:10022'
p6530
aS'hsa:117579'
p6531
aS'hsa:3640'
p6532
aS'hsa:6013'
p6533
aS'hsa:6019'
p6534
aS'hsa:389692'
p6535
aS'hsa:10724'
p6536
aS'hsa:11000'
p6537
aS'hsa:133522'
p6538
aS'hsa:22877'
p6539
aS'hsa:51085'
p6540
aS'hsa:5524'
p6541
aS'hsa:57761'
p6542
aS'hsa:6945'
p6543
aS'hsa:7376'
p6544
aS'hsa:1050'
p6545
aS'hsa:177'
p6546
aS'hsa:50507'
p6547
aS'hsa:1363'
p6548
aS'hsa:3382'
p6549
aS'hsa:5798'
p6550
aS'hsa:5799'
p6551
aS'hsa:168620'
p6552
aS'hsa:222546'
p6553
aS'hsa:2494'
p6554
aS'hsa:3087'
p6555
aS'hsa:3110'
p6556
aS'hsa:3171'
p6557
aS'hsa:3174'
p6558
aS'hsa:3375'
p6559
aS'hsa:4760'
p6560
aS'hsa:4821'
p6561
aS'hsa:4825'
p6562
aS'hsa:50674'
p6563
aS'hsa:5078'
p6564
aS'hsa:6928'
p6565
aS'hsa:3758'
p6566
aS'hsa:4306'
p6567
aS'hsa:53828'
p6568
aS'hsa:9351'
p6569
aS'hsa:56302'
p6570
aS'hsa:7421'
p6571
aS'hsa:793'
p6572
aS'hsa:10540'
p6573
aS'hsa:10671'
p6574
aS'hsa:140735'
p6575
aS'hsa:1639'
p6576
aS'hsa:359'
p6577
aS'hsa:360'
p6578
aS'hsa:361'
p6579
aS'hsa:51164'
p6580
aS'hsa:51626'
p6581
aS'hsa:84516'
p6582
aS'hsa:8655'
p6583
aS'hsa:1468'
p6584
aS'hsa:6550'
p6585
aS'hsa:8671'
p6586
aS'hsa:10723'
p6587
aS'hsa:1188'
p6588
aS'hsa:6521'
p6589
aS'hsa:1469'
p6590
aS'hsa:1470'
p6591
aS'hsa:1471'
p6592
aS'hsa:1472'
p6593
aS'hsa:1473'
p6594
aS'hsa:1755'
p6595
aS'hsa:3346'
p6596
aS'hsa:3347'
p6597
aS'hsa:362'
p6598
aS'hsa:4025'
p6599
aS'hsa:4069'
p6600
aS'hsa:4589'
p6601
aS'hsa:54831'
p6602
aS'hsa:5542'
p6603
aS'hsa:55503'
p6604
aS'hsa:5554'
p6605
aS'hsa:5555'
p6606
aS'hsa:6522'
p6607
aS'hsa:653247'
p6608
aS'hsa:6558'
p6609
aS'hsa:6779'
p6610
aS'hsa:115111'
p6611
aS'hsa:2520'
p6612
aS'hsa:3766'
p6613
aS'hsa:3772'
p6614
aS'hsa:3773'
p6615
aS'hsa:3776'
p6616
aS'hsa:389015'
p6617
aS'hsa:54207'
p6618
aS'hsa:6750'
p6619
aS'hsa:9992'
p6620
aS'hsa:10136'
p6621
aS'hsa:1357'
p6622
aS'hsa:1358'
p6623
aS'hsa:1360'
p6624
aS'hsa:1504'
p6625
aS'hsa:1506'
p6626
aS'hsa:1811'
p6627
aS'hsa:219931'
p6628
aS'hsa:23436'
p6629
aS'hsa:51032'
p6630
aS'hsa:5874'
p6631
aS'hsa:63036'
p6632
aS'hsa:9545'
p6633
aS'hsa:2542'
p6634
aS'hsa:6518'
p6635
aS'hsa:6523'
p6636
aS'hsa:10008'
p6637
aS'hsa:11136'
p6638
aS'hsa:1289'
p6639
aS'hsa:1290'
p6640
aS'hsa:1294'
p6641
aS'hsa:1300'
p6642
aS'hsa:1301'
p6643
aS'hsa:1302'
p6644
aS'hsa:1303'
p6645
aS'hsa:1305'
p6646
aS'hsa:1306'
p6647
aS'hsa:1308'
p6648
aS'hsa:169044'
p6649
aS'hsa:1803'
p6650
aS'hsa:2006'
p6651
aS'hsa:206358'
p6652
aS'hsa:23428'
p6653
aS'hsa:255631'
p6654
aS'hsa:340024'
p6655
aS'hsa:3769'
p6656
aS'hsa:4224'
p6657
aS'hsa:4225'
p6658
aS'hsa:50509'
p6659
aS'hsa:5222'
p6660
aS'hsa:643834'
p6661
aS'hsa:643847'
p6662
aS'hsa:6510'
p6663
aS'hsa:6519'
p6664
aS'hsa:6564'
p6665
aS'hsa:7373'
p6666
aS'hsa:7512'
p6667
aS'hsa:80781'
p6668
aS'hsa:81578'
p6669
aS'hsa:85301'
p6670
aS'hsa:9056'
p6671
aS'hsa:1208'
p6672
aS'hsa:29881'
p6673
aS'hsa:337'
p6674
aS'hsa:338'
p6675
aS'hsa:4547'
p6676
aS'hsa:10599'
p6677
aS'hsa:10864'
p6678
aS'hsa:123264'
p6679
aS'hsa:200931'
p6680
aS'hsa:28234'
p6681
aS'hsa:338821'
p6682
aS'hsa:343'
p6683
aS'hsa:366'
p6684
aS'hsa:57552'
p6685
aS'hsa:57835'
p6686
aS'hsa:6554'
p6687
aS'hsa:6555'
p6688
aS'hsa:6579'
p6689
aS'hsa:6580'
p6690
aS'hsa:8431'
p6691
aS'hsa:9376'
p6692
aS'hsa:9971'
p6693
aS'hsa:10560'
p6694
aS'hsa:113278'
p6695
aS'hsa:25974'
p6696
aS'hsa:2694'
p6697
aS'hsa:55788'
p6698
aS'hsa:5948'
p6699
aS'hsa:6948'
p6700
aS'hsa:8029'
p6701
aS'hsa:80704'
p6702
aS'hsa:8884'
p6703
aS'hsa:9963'
p6704
aS'hsa:10568'
p6705
aS'hsa:115019'
p6706
aS'hsa:1181'
p6707
aS'hsa:140803'
p6708
aS'hsa:261729'
p6709
aS'hsa:26872'
p6710
aS'hsa:4489'
p6711
aS'hsa:4490'
p6712
aS'hsa:4493'
p6713
aS'hsa:4494'
p6714
aS'hsa:4495'
p6715
aS'hsa:4496'
p6716
aS'hsa:4499'
p6717
aS'hsa:4501'
p6718
aS'hsa:4502'
p6719
aS'hsa:475'
p6720
aS'hsa:55630'
p6721
aS'hsa:645745'
p6722
aS'hsa:65010'
p6723
aS'hsa:7779'
p6724
aS'hsa:795'
p6725
aS'hsa:79901'
p6726
aS'hsa:102'
p6727
aS'hsa:10313'
p6728
aS'hsa:23621'
p6729
aS'hsa:25825'
p6730
aS'hsa:322'
p6731
aS'hsa:3416'
p6732
aS'hsa:348'
p6733
aS'hsa:4035'
p6734
aS'hsa:57142'
p6735
aS'hsa:6622'
p6736
aS'hsa:8851'
p6737
aS'hsa:8883'
p6738
aS'hsa:11315'
p6739
aS'hsa:120892'
p6740
aS'hsa:2861'
p6741
aS'hsa:5413'
p6742
aS'hsa:7345'
p6743
aS'hsa:9627'
p6744
aS'hsa:10452'
p6745
aS'hsa:4741'
p6746
aS'hsa:4744'
p6747
aS'hsa:4747'
p6748
aS'hsa:5630'
p6749
aS'hsa:57679'
p6750
aS'hsa:84134'
p6751
aS'hsa:9973'
p6752
aS'hsa:10126'
p6753
aS'hsa:127602'
p6754
aS'hsa:146754'
p6755
aS'hsa:1767'
p6756
aS'hsa:1768'
p6757
aS'hsa:1769'
p6758
aS'hsa:1770'
p6759
aS'hsa:196385'
p6760
aS'hsa:201625'
p6761
aS'hsa:23186'
p6762
aS'hsa:25981'
p6763
aS'hsa:27019'
p6764
aS'hsa:3064'
p6765
aS'hsa:3092'
p6766
aS'hsa:55081'
p6767
aS'hsa:55567'
p6768
aS'hsa:56171'
p6769
aS'hsa:64446'
p6770
aS'hsa:7052'
p6771
aS'hsa:7802'
p6772
aS'hsa:83544'
p6773
aS'hsa:8632'
p6774
aS'hsa:8701'
p6775
aS'hsa:10963'
p6776
aS'hsa:26086'
p6777
aS'hsa:5173'
p6778
aS'hsa:23237'
p6779
aS'hsa:10013'
p6780
aS'hsa:121504'
p6781
aS'hsa:126961'
p6782
aS'hsa:128312'
p6783
aS'hsa:158983'
p6784
aS'hsa:2030'
p6785
aS'hsa:255626'
p6786
aS'hsa:286436'
p6787
aS'hsa:3017'
p6788
aS'hsa:3018'
p6789
aS'hsa:3020'
p6790
aS'hsa:3021'
p6791
aS'hsa:333932'
p6792
aS'hsa:440093'
p6793
aS'hsa:440689'
p6794
aS'hsa:51564'
p6795
aS'hsa:554313'
p6796
aS'hsa:5569'
p6797
aS'hsa:55869'
p6798
aS'hsa:653604'
p6799
aS'hsa:79885'
p6800
aS'hsa:8290'
p6801
aS'hsa:8294'
p6802
aS'hsa:8339'
p6803
aS'hsa:8340'
p6804
aS'hsa:8341'
p6805
aS'hsa:8342'
p6806
aS'hsa:8343'
p6807
aS'hsa:8344'
p6808
aS'hsa:8345'
p6809
aS'hsa:8346'
p6810
aS'hsa:8347'
p6811
aS'hsa:8348'
p6812
aS'hsa:8349'
p6813
aS'hsa:8350'
p6814
aS'hsa:8351'
p6815
aS'hsa:8352'
p6816
aS'hsa:8353'
p6817
aS'hsa:8354'
p6818
aS'hsa:8355'
p6819
aS'hsa:8356'
p6820
aS'hsa:8357'
p6821
aS'hsa:8358'
p6822
aS'hsa:8359'
p6823
aS'hsa:8360'
p6824
aS'hsa:8361'
p6825
aS'hsa:8362'
p6826
aS'hsa:8363'
p6827
aS'hsa:8364'
p6828
aS'hsa:8365'
p6829
aS'hsa:8366'
p6830
aS'hsa:8367'
p6831
aS'hsa:8368'
p6832
aS'hsa:8369'
p6833
aS'hsa:8370'
p6834
aS'hsa:83933'
p6835
aS'hsa:84254'
p6836
aS'hsa:8520'
p6837
aS'hsa:85236'
p6838
aS'hsa:8968'
p6839
aS'hsa:8970'
p6840
aS'hsa:9734'
p6841
aS'hsa:10801'
p6842
aS'hsa:124404'
p6843
aS'hsa:1731'
p6844
aS'hsa:23157'
p6845
aS'hsa:23176'
p6846
aS'hsa:23607'
p6847
aS'hsa:26084'
p6848
aS'hsa:391'
p6849
aS'hsa:4735'
p6850
aS'hsa:55752'
p6851
aS'hsa:55964'
p6852
aS'hsa:63916'
p6853
aS'hsa:79658'
p6854
aS'hsa:79767'
p6855
aS'hsa:10945'
p6856
aS'hsa:11014'
p6857
aS'hsa:11015'
p6858
aS'hsa:1445'
p6859
aS'hsa:5803'
p6860
aS'hsa:3875'
p6861
aS'hsa:4691'
p6862
aS'hsa:147700'
p6863
aS'hsa:23207'
p6864
aS'hsa:3831'
p6865
aS'hsa:64837'
p6866
aS'hsa:89953'
p6867
aS'hsa:3394'
p6868
aS'hsa:1195'
p6869
aS'hsa:1937'
p6870
aS'hsa:3297'
p6871
aS'hsa:5861'
p6872
aS'hsa:81876'
p6873
aS'hsa:3039'
p6874
aS'hsa:3040'
p6875
aS'hsa:3043'
p6876
aS'hsa:3250'
p6877
aS'hsa:8542'
p6878
aS'hsa:2532'
p6879
aS'hsa:2994'
p6880
aS'hsa:2995'
p6881
aS'hsa:3820'
p6882
aS'hsa:345611'
p6883
aS'hsa:1992'
p6884
aS'hsa:4583'
p6885
aS'hsa:5269'
p6886
aS'hsa:5272'
p6887
aS'hsa:5273'
p6888
aS'hsa:5275'
p6889
aS'hsa:6317'
p6890
aS'hsa:6318'
p6891
aS'hsa:1828'
p6892
aS'hsa:3858'
p6893
aS'hsa:1054'
p6894
aS'hsa:26253'
p6895
aS'hsa:4046'
p6896
aS'hsa:3434'
p6897
aS'hsa:439996'
p6898
aS'hsa:1959'
p6899
aS'hsa:1960'
p6900
aS'hsa:10399'
p6901
aS'hsa:1796'
p6902
aS'hsa:4599'
p6903
aS'hsa:51209'
p6904
aS'hsa:6504'
p6905
aS'hsa:9367'
p6906
aS'hsa:10625'
p6907
aS'hsa:11100'
p6908
aS'hsa:3267'
p6909
aS'hsa:3836'
p6910
aS'hsa:3838'
p6911
aS'hsa:5045'
p6912
aS'hsa:56649'
p6913
aS'hsa:7113'
p6914
aS'hsa:84000'
p6915
aS'hsa:91543'
p6916
aS'hsa:10474'
p6917
aS'hsa:1108'
p6918
aS'hsa:23352'
p6919
aS'hsa:23462'
p6920
aS'hsa:23493'
p6921
aS'hsa:26508'
p6922
aS'hsa:27175'
p6923
aS'hsa:390992'
p6924
aS'hsa:4799'
p6925
aS'hsa:54626'
p6926
aS'hsa:55502'
p6927
aS'hsa:57801'
p6928
aS'hsa:7015'
p6929
aS'hsa:7283'
p6930
aS'hsa:84667'
p6931
aS'hsa:8638'
p6932
aS'hsa:10524'
p6933
aS'hsa:23373'
p6934
aS'hsa:2874'
p6935
aS'hsa:4487'
p6936
aS'hsa:4488'
p6937
aS'hsa:467'
p6938
aS'hsa:55697'
p6939
aS'hsa:5902'
p6940
aS'hsa:64784'
p6941
aS'hsa:7538'
p6942
aS'hsa:8295'
p6943
aS'hsa:8498'
p6944
aS'hsa:94241'
p6945
aS'hsa:131450'
p6946
aS'hsa:344807'
p6947
aS'hsa:9976'
p6948
aS'hsa:10445'
p6949
aS'hsa:112950'
p6950
aS'hsa:1936'
p6951
aS'hsa:25833'
p6952
aS'hsa:29915'
p6953
aS'hsa:29992'
p6954
aS'hsa:29997'
p6955
aS'hsa:3054'
p6956
aS'hsa:3150'
p6957
aS'hsa:5199'
p6958
aS'hsa:6672'
p6959
aS'hsa:6732'
p6960
aS'hsa:708'
p6961
aS'hsa:100506248'
p6962
aS'hsa:26993'
p6963
aS'hsa:27044'
p6964
aS'hsa:3316'
p6965
aS'hsa:5757'
p6966
aS'hsa:7431'
p6967
aS'hsa:10342'
p6968
aS'hsa:1163'
p6969
aS'hsa:1164'
p6970
aS'hsa:2034'
p6971
aS'hsa:354'
p6972
aS'hsa:3728'
p6973
aS'hsa:4824'
p6974
aS'hsa:57449'
p6975
aS'hsa:5915'
p6976
aS'hsa:613'
p6977
aS'hsa:7704'
p6978
aS'hsa:8030'
p6979
aS'hsa:862'
p6980
aS'hsa:9915'
p6981
aS'hsa:1025'
p6982
aS'hsa:1053'
p6983
aS'hsa:1668'
p6984
aS'hsa:1991'
p6985
aS'hsa:2078'
p6986
aS'hsa:2115'
p6987
aS'hsa:2118'
p6988
aS'hsa:2119'
p6989
aS'hsa:2120'
p6990
aS'hsa:2130'
p6991
aS'hsa:2138'
p6992
aS'hsa:221037'
p6993
aS'hsa:2313'
p6994
aS'hsa:2521'
p6995
aS'hsa:26471'
p6996
aS'hsa:30012'
p6997
aS'hsa:3195'
p6998
aS'hsa:3205'
p6999
aS'hsa:3206'
p7000
aS'hsa:3207'
p7001
aS'hsa:3248'
p7002
aS'hsa:4005'
p7003
aS'hsa:4066'
p7004
aS'hsa:4221'
p7005
aS'hsa:4291'
p7006
aS'hsa:4298'
p7007
aS'hsa:4299'
p7008
aS'hsa:4300'
p7009
aS'hsa:4613'
p7010
aS'hsa:5077'
p7011
aS'hsa:5079'
p7012
aS'hsa:5081'
p7013
aS'hsa:5087'
p7014
aS'hsa:5090'
p7015
aS'hsa:51274'
p7016
aS'hsa:51513'
p7017
aS'hsa:51804'
p7018
aS'hsa:5218'
p7019
aS'hsa:54738'
p7020
aS'hsa:5546'
p7021
aS'hsa:55589'
p7022
aS'hsa:64332'
p7023
aS'hsa:64919'
p7024
aS'hsa:6495'
p7025
aS'hsa:6692'
p7026
aS'hsa:6756'
p7027
aS'hsa:6757'
p7028
aS'hsa:6760'
p7029
aS'hsa:6935'
p7030
aS'hsa:7102'
p7031
aS'hsa:727837'
p7032
aS'hsa:7403'
p7033
aS'hsa:7404'
p7034
aS'hsa:7490'
p7035
aS'hsa:79058'
p7036
aS'hsa:8013'
p7037
aS'hsa:8091'
p7038
aS'hsa:8464'
p7039
aS'hsa:85414'
p7040
aS'hsa:860'
p7041
aS'hsa:8842'
p7042
aS'hsa:8861'
p7043
aS'hsa:8938'
p7044
aS'hsa:904'
p7045
aS'hsa:905'
p7046
aS'hsa:28973'
p7047
aS'hsa:3249'
p7048
aS'hsa:9093'
p7049
aS'hsa:445329'
p7050
aS'hsa:64816'
p7051
aS'hsa:6799'
p7052
aS'hsa:6817'
p7053
aS'hsa:6818'
p7054
aS'hsa:117581'
p7055
aS'hsa:2719'
p7056
aS'hsa:27250'
p7057
aS'hsa:2817'
p7058
aS'hsa:286'
p7059
aS'hsa:287'
p7060
aS'hsa:288'
p7061
aS'hsa:3236'
p7062
aS'hsa:3481'
p7063
aS'hsa:4060'
p7064
aS'hsa:406902'
p7065
aS'hsa:406903'
p7066
aS'hsa:406991'
p7067
aS'hsa:7023'
p7068
aS'hsa:7078'
p7069
aS'hsa:7291'
p7070
aS'hsa:84309'
p7071
aS'hsa:100302238'
p7072
aS'hsa:100302282'
p7073
aS'hsa:100500809'
p7074
aS'hsa:100616173'
p7075
aS'hsa:10253'
p7076
aS'hsa:10642'
p7077
aS'hsa:113130'
p7078
aS'hsa:131405'
p7079
aS'hsa:23405'
p7080
aS'hsa:23414'
p7081
aS'hsa:27086'
p7082
aS'hsa:406881'
p7083
aS'hsa:406882'
p7084
aS'hsa:406883'
p7085
aS'hsa:406884'
p7086
aS'hsa:406885'
p7087
aS'hsa:406886'
p7088
aS'hsa:406887'
p7089
aS'hsa:406888'
p7090
aS'hsa:406889'
p7091
aS'hsa:406890'
p7092
aS'hsa:406891'
p7093
aS'hsa:406892'
p7094
aS'hsa:406893'
p7095
aS'hsa:406894'
p7096
aS'hsa:406895'
p7097
aS'hsa:406896'
p7098
aS'hsa:406900'
p7099
aS'hsa:406901'
p7100
aS'hsa:406904'
p7101
aS'hsa:406905'
p7102
aS'hsa:406906'
p7103
aS'hsa:406907'
p7104
aS'hsa:406908'
p7105
aS'hsa:406909'
p7106
aS'hsa:406910'
p7107
aS'hsa:406911'
p7108
aS'hsa:406912'
p7109
aS'hsa:406913'
p7110
aS'hsa:406915'
p7111
aS'hsa:406916'
p7112
aS'hsa:406917'
p7113
aS'hsa:406918'
p7114
aS'hsa:406922'
p7115
aS'hsa:406923'
p7116
aS'hsa:406925'
p7117
aS'hsa:406926'
p7118
aS'hsa:406928'
p7119
aS'hsa:406933'
p7120
aS'hsa:406935'
p7121
aS'hsa:406937'
p7122
aS'hsa:406938'
p7123
aS'hsa:406942'
p7124
aS'hsa:406943'
p7125
aS'hsa:406947'
p7126
aS'hsa:406948'
p7127
aS'hsa:406949'
p7128
aS'hsa:406950'
p7129
aS'hsa:406951'
p7130
aS'hsa:406952'
p7131
aS'hsa:406953'
p7132
aS'hsa:406954'
p7133
aS'hsa:406955'
p7134
aS'hsa:406956'
p7135
aS'hsa:406957'
p7136
aS'hsa:406959'
p7137
aS'hsa:406967'
p7138
aS'hsa:406969'
p7139
aS'hsa:406970'
p7140
aS'hsa:406971'
p7141
aS'hsa:406976'
p7142
aS'hsa:406977'
p7143
aS'hsa:406978'
p7144
aS'hsa:406979'
p7145
aS'hsa:406980'
p7146
aS'hsa:406981'
p7147
aS'hsa:406982'
p7148
aS'hsa:406983'
p7149
aS'hsa:406984'
p7150
aS'hsa:406985'
p7151
aS'hsa:406986'
p7152
aS'hsa:406988'
p7153
aS'hsa:406989'
p7154
aS'hsa:406992'
p7155
aS'hsa:406995'
p7156
aS'hsa:406996'
p7157
aS'hsa:406997'
p7158
aS'hsa:407006'
p7159
aS'hsa:407007'
p7160
aS'hsa:407008'
p7161
aS'hsa:407009'
p7162
aS'hsa:407010'
p7163
aS'hsa:407011'
p7164
aS'hsa:407014'
p7165
aS'hsa:407015'
p7166
aS'hsa:407016'
p7167
aS'hsa:407017'
p7168
aS'hsa:407018'
p7169
aS'hsa:407019'
p7170
aS'hsa:407020'
p7171
aS'hsa:407021'
p7172
aS'hsa:407024'
p7173
aS'hsa:407025'
p7174
aS'hsa:407026'
p7175
aS'hsa:407029'
p7176
aS'hsa:407030'
p7177
aS'hsa:407031'
p7178
aS'hsa:407032'
p7179
aS'hsa:407033'
p7180
aS'hsa:407034'
p7181
aS'hsa:407035'
p7182
aS'hsa:407036'
p7183
aS'hsa:407040'
p7184
aS'hsa:407041'
p7185
aS'hsa:407042'
p7186
aS'hsa:407043'
p7187
aS'hsa:407044'
p7188
aS'hsa:407045'
p7189
aS'hsa:407046'
p7190
aS'hsa:407047'
p7191
aS'hsa:407048'
p7192
aS'hsa:407049'
p7193
aS'hsa:407051'
p7194
aS'hsa:407053'
p7195
aS'hsa:407055'
p7196
aS'hsa:4325'
p7197
aS'hsa:442890'
p7198
aS'hsa:442891'
p7199
aS'hsa:442898'
p7200
aS'hsa:442900'
p7201
aS'hsa:442902'
p7202
aS'hsa:442903'
p7203
aS'hsa:442904'
p7204
aS'hsa:442909'
p7205
aS'hsa:442910'
p7206
aS'hsa:442918'
p7207
aS'hsa:494324'
p7208
aS'hsa:494335'
p7209
aS'hsa:554213'
p7210
aS'hsa:574031'
p7211
aS'hsa:574411'
p7212
aS'hsa:574452'
p7213
aS'hsa:574455'
p7214
aS'hsa:574457'
p7215
aS'hsa:574461'
p7216
aS'hsa:574467'
p7217
aS'hsa:574473'
p7218
aS'hsa:574476'
p7219
aS'hsa:574484'
p7220
aS'hsa:574493'
p7221
aS'hsa:599'
p7222
aS'hsa:619552'
p7223
aS'hsa:6541'
p7224
aS'hsa:6624'
p7225
aS'hsa:6659'
p7226
aS'hsa:6768'
p7227
aS'hsa:693187'
p7228
aS'hsa:693200'
p7229
aS'hsa:693210'
p7230
aS'hsa:8434'
p7231
aS'hsa:8626'
p7232
aS'hsa:90427'
p7233
aS'hsa:9493'
p7234
aS'hsa:9839'
p7235
aS'hsa:7380'
p7236
aS'hsa:11040'
p7237
aS'hsa:238'
p7238
aS'hsa:27436'
p7239
aS'hsa:23410'
p7240
aS'hsa:51548'
p7241
aS'hsa:9123'
p7242
aS'hsa:9997'
p7243
aS'hsa:126969'
p7244
aS'hsa:204962'
p7245
aS'hsa:23446'
p7246
aS'hsa:57153'
p7247
aS'hsa:6581'
p7248
aS'hsa:6582'
p7249
aS'hsa:6583'
p7250
aS'hsa:6584'
p7251
aS'hsa:80736'
p7252
aS'hsa:5553'
p7253
aS'hsa:6037'
p7254
aS'hsa:8288'
p7255
aS'hsa:6737'
p7256
aS'hsa:6738'
p7257
aS'hsa:6741'
p7258
aS'hsa:3543'
p7259
aS'hsa:1674'
p7260
aS'hsa:1756'
p7261
aS'hsa:2010'
p7262
aS'hsa:4607'
p7263
aS'hsa:6442'
p7264
aS'hsa:6443'
p7265
aS'hsa:6444'
p7266
aS'hsa:6445'
p7267
aS'hsa:7273'
p7268
aS'hsa:1824'
p7269
aS'hsa:1829'
p7270
aS'hsa:1832'
p7271
aS'hsa:5318'
p7272
aS'hsa:88'
p7273
aS'hsa:89'
p7274
aS'hsa:1525'
p7275
aS'hsa:4880'
p7276
a.