(dp1
S'R-HSA-70688'
p2
I3
sS'R-HSA-75035'
p3
I14
sS'R-HSA-216083'
p4
I110
sS'R-HSA-3134963'
p5
I13
sS'R-HSA-5601884'
p6
I29
sS'R-HSA-168164'
p7
I1
sS'R-HSA-917977'
p8
I31
sS'R-HSA-8854518'
p9
I72
sS'R-HSA-112409'
p10
I13
sS'R-HSA-68867'
p11
I15
sS'R-HSA-168303'
p12
I9
sS'R-HSA-727802'
p13
I9
sS'R-HSA-5619110'
p14
I1
sS'R-HSA-211736'
p15
I2
sS'R-HSA-211733'
p16
I50
sS'R-HSA-71336'
p17
I12
sS'R-HSA-5675482'
p18
I11
sS'R-HSA-1251985'
p19
I30
sS'R-HSA-68911'
p20
I5
sS'R-HSA-167246'
p21
I45
sS'R-HSA-167242'
p22
I23
sS'R-HSA-167243'
p23
I35
sS'R-HSA-5683826'
p24
I30
sS'R-HSA-189200'
p25
I21
sS'R-HSA-175567'
p26
I9
sS'R-HSA-4411364'
p27
I8
sS'R-HSA-2500257'
p28
I127
sS'R-HSA-5357786'
p29
I14
sS'R-HSA-1482925'
p30
I18
sS'R-HSA-3000178'
p31
I88
sS'R-HSA-5173105'
p32
I10
sS'R-HSA-3000170'
p33
I34
sS'R-HSA-3000171'
p34
I41
sS'R-HSA-5625900'
p35
I26
sS'R-HSA-264642'
p36
I17
sS'R-HSA-76071'
p37
I56
sS'R-HSA-389661'
p38
I45
sS'R-HSA-193144'
p39
I6
sS'R-HSA-425397'
p40
I3
sS'R-HSA-3249367'
p41
I3
sS'R-HSA-168288'
p42
I9
sS'R-HSA-140875'
p43
I22
sS'R-HSA-5655253'
p44
I30
sS'R-HSA-3315487'
p45
I7
sS'R-HSA-428540'
p46
I14
sS'R-HSA-428543'
p47
I9
sS'R-HSA-428542'
p48
I4
sS'R-HSA-5627083'
p49
I3
sS'R-HSA-3769402'
p50
I42
sS'R-HSA-111957'
p51
I4
sS'R-HSA-211994'
p52
I2
sS'R-HSA-211999'
p53
I11
sS'R-HSA-209543'
p54
I18
sS'R-HSA-8853334'
p55
I10
sS'R-HSA-5635838'
p56
I26
sS'R-HSA-162594'
p57
I9
sS'R-HSA-435368'
p58
I7
sS'R-HSA-429947'
p59
I25
sS'R-HSA-162592'
p60
I11
sS'R-HSA-173623'
p61
I95
sS'R-HSA-5689880'
p62
I205
sS'R-HSA-389887'
p63
I9
sS'R-HSA-139853'
p64
I16
sS'R-HSA-427389'
p65
I45
sS'R-HSA-168302'
p66
I9
sS'R-HSA-5676590'
p67
I59
sS'R-HSA-5676594'
p68
I21
sS'R-HSA-156842'
p69
I7
sS'R-HSA-918233'
p70
I14
sS'R-HSA-5625886'
p71
I36
sS'R-HSA-4086398'
p72
I88
sS'R-HSA-5467340'
p73
I14
sS'R-HSA-5467348'
p74
I14
sS'R-HSA-193634'
p75
I9
sS'R-HSA-416482'
p76
I87
sS'R-HSA-5617472'
p77
I91
sS'R-HSA-8847453'
p78
I4
sS'R-HSA-73762'
p79
I65
sS'R-HSA-2682334'
p80
I48
sS'R-HSA-163125'
p81
I67
sS'R-HSA-5083625'
p82
I18
sS'R-HSA-8964046'
p83
I9
sS'R-HSA-195253'
p84
I68
sS'R-HSA-416550'
p85
I8
sS'R-HSA-5083629'
p86
I1
sS'R-HSA-8964041'
p87
I4
sS'R-HSA-8866911'
p88
I5
sS'R-HSA-8866910'
p89
I13
sS'R-HSA-6811558'
p90
I103
sS'R-HSA-6811555'
p91
I9
sS'R-HSA-177504'
p92
I24
sS'R-HSA-3296197'
p93
I3
sS'R-HSA-437239'
p94
I82
sS'R-HSA-69298'
p95
I15
sS'R-HSA-8849175'
p96
I2
sS'R-HSA-2978092'
p97
I1
sS'R-HSA-69052'
p98
I6
sS'R-HSA-427413'
p99
I104
sS'R-HSA-8963889'
p100
I19
sS'R-HSA-8963888'
p101
I10
sS'R-HSA-83936'
p102
I7
sS'R-HSA-392154'
p103
I7
sS'R-HSA-71032'
p104
I5
sS'R-HSA-351202'
p105
I4
sS'R-HSA-351200'
p106
I3
sS'R-HSA-168179'
p107
I7
sS'R-HSA-4419969'
p108
I16
sS'R-HSA-3134975'
p109
I14
sS'R-HSA-975957'
p110
I117
sS'R-HSA-975956'
p111
I96
sS'R-HSA-168176'
p112
I2
sS'R-HSA-2644607'
p113
I6
sS'R-HSA-2644606'
p114
I58
sS'R-HSA-112411'
p115
I10
sS'R-HSA-112412'
p116
I11
sS'R-HSA-417973'
p117
I4
sS'R-HSA-73780'
p118
I18
sS'R-HSA-168316'
p119
I7
sS'R-HSA-168315'
p120
I3
sS'R-HSA-211728'
p121
I2
sS'R-HSA-174184'
p122
I72
sS'R-HSA-380259'
p123
I69
sS'R-HSA-606279'
p124
I54
sS'R-HSA-69478'
p125
I5
sS'R-HSA-5545619'
p126
I2
sS'R-HSA-380095'
p127
I5
sS'R-HSA-69473'
p128
I67
sS'R-HSA-5619058'
p129
I1
sS'R-HSA-209931'
p130
I5
sS'R-HSA-69273'
p131
I30
sS'R-HSA-1606322'
p132
I1
sS'R-HSA-169131'
p133
I2
sS'R-HSA-450302'
p134
I23
sS'R-HSA-2453864'
p135
I8
sS'R-HSA-6805567'
p136
I155
sS'R-HSA-181429'
p137
I18
sS'R-HSA-2142700'
p138
I6
sS'R-HSA-532668'
p139
I16
sS'R-HSA-5668599'
p140
I13
sS'R-HSA-5250971'
p141
I4
sS'R-HSA-380320'
p142
I93
sS'R-HSA-964827'
p143
I3
sS'R-HSA-2672351'
p144
I79
sS'R-HSA-2179392'
p145
I11
sS'R-HSA-2408517'
p146
I11
sS'R-HSA-68877'
p147
I112
sS'R-HSA-68875'
p148
I3
sS'R-HSA-3371511'
p149
I12
sS'R-HSA-6804760'
p150
I19
sS'R-HSA-2485179'
p151
I18
sS'R-HSA-5389840'
p152
I172
sS'R-HSA-76066'
p153
I54
sS'R-HSA-76061'
p154
I56
sS'R-HSA-5654687'
p155
I20
sS'R-HSA-2855086'
p156
I5
sS'R-HSA-8949215'
p157
I13
sS'R-HSA-5654689'
p158
I23
sS'R-HSA-5654688'
p159
I24
sS'R-HSA-975144'
p160
I14
sS'R-HSA-425381'
p161
I10
sS'R-HSA-73943'
p162
I2
sS'R-HSA-8939236'
p163
I99
sS'R-HSA-442717'
p164
I4
sS'R-HSA-1483248'
p165
I5
sS'R-HSA-211981'
p166
I22
sS'R-HSA-201722'
p167
I92
sS'R-HSA-210455'
p168
I4
sS'R-HSA-8850843'
p169
I8
sS'R-HSA-2404192'
p170
I4
sS'R-HSA-5602566'
p171
I2
sS'R-HSA-72203'
p172
I37
sS'R-HSA-72200'
p173
I8
sS'R-HSA-418990'
p174
I35
sS'R-HSA-1257604'
p175
I105
sS'R-HSA-2161541'
p176
I5
sS'R-HSA-5339700'
p177
I3
sS'R-HSA-5689896'
p178
I38
sS'R-HSA-429958'
p179
I16
sS'R-HSA-936837'
p180
I55
sS'R-HSA-159418'
p181
I16
sS'R-HSA-166208'
p182
I23
sS'R-HSA-195399'
p183
I8
sS'R-HSA-433692'
p184
I6
sS'R-HSA-141334'
p185
I2
sS'R-HSA-141333'
p186
I2
sS'R-HSA-5658442'
p187
I68
sS'R-HSA-375281'
p188
I13
sS'R-HSA-375280'
p189
I8
sS'R-HSA-3232118'
p190
I22
sS'R-HSA-75876'
p191
I25
sS'R-HSA-201451'
p192
I28
sS'R-HSA-8957275'
p193
I107
sS'R-HSA-427975'
p194
I4
sS'R-HSA-5099900'
p195
I15
sS'R-HSA-5686938'
p196
I19
sS'R-HSA-190840'
p197
I19
sS'R-HSA-5688849'
p198
I8
sS'R-HSA-5083630'
p199
I4
sS'R-HSA-5083632'
p200
I18
sS'R-HSA-5083633'
p201
I1
sS'R-HSA-5083635'
p202
I37
sS'R-HSA-5083636'
p203
I18
sS'R-HSA-6807062'
p204
I4
sS'R-HSA-196299'
p205
I17
sS'R-HSA-3656243'
p206
I7
sS'R-HSA-8866906'
p207
I4
sS'R-HSA-8866907'
p208
I12
sS'R-HSA-8866904'
p209
I18
sS'R-HSA-3656244'
p210
I7
sS'R-HSA-391160'
p211
I18
sS'R-HSA-8857538'
p212
I6
sS'R-HSA-194002'
p213
I9
sS'R-HSA-8963896'
p214
I8
sS'R-HSA-879415'
p215
I19
sS'R-HSA-1632852'
p216
I73
sS'R-HSA-211227'
p217
I13
sS'R-HSA-2871837'
p218
I171
sS'R-HSA-381426'
p219
I124
sS'R-HSA-1296067'
p220
I3
sS'R-HSA-1296061'
p221
I4
sS'R-HSA-171286'
p222
I3
sS'R-HSA-8941855'
p223
I7
sS'R-HSA-8941856'
p224
I26
sS'R-HSA-8941858'
p225
I55
sS'R-HSA-5357609'
p226
I2
sS'R-HSA-421837'
p227
I7
sS'R-HSA-426048'
p228
I5
sS'R-HSA-168142'
p229
I1
sS'R-HSA-69601'
p230
I54
sS'R-HSA-2243919'
p231
I18
sS'R-HSA-561048'
p232
I5
sS'R-HSA-177135'
p233
I6
sS'R-HSA-1855167'
p234
I10
sS'R-HSA-912526'
p235
I27
sS'R-HSA-2428933'
p236
I16
sS'R-HSA-209905'
p237
I4
sS'R-HSA-445355'
p238
I39
sS'R-HSA-8848584'
p239
I4
sS'R-HSA-181430'
p240
I18
sS'R-HSA-2468052'
p241
I11
sS'R-HSA-2142712'
p242
I7
sS'R-HSA-174362'
p243
I6
sS'R-HSA-381753'
p244
I432
sS'R-HSA-5250968'
p245
I9
sS'R-HSA-5603027'
p246
I8
sS'R-HSA-5603029'
p247
I7
sS'R-HSA-1614635'
p248
I6
sS'R-HSA-164843'
p249
I13
sS'R-HSA-168325'
p250
I50
sS'R-HSA-2408508'
p251
I8
sS'R-HSA-392851'
p252
I40
sS'R-HSA-450408'
p253
I56
sS'R-HSA-5657655'
p254
I1
sS'R-HSA-392451'
p255
I48
sS'R-HSA-5654699'
p256
I27
sS'R-HSA-5654695'
p257
I26
sS'R-HSA-5654693'
p258
I25
sS'R-HSA-8876198'
p259
I90
sS'R-HSA-8851907'
p260
I6
sS'R-HSA-1614558'
p261
I4
sS'R-HSA-193368'
p262
I24
sS'R-HSA-975155'
p263
I8
sS'R-HSA-1482922'
p264
I17
sS'R-HSA-425393'
p265
I8
sS'R-HSA-373756'
p266
I2
sS'R-HSA-5652227'
p267
I2
sS'R-HSA-373753'
p268
I26
sS'R-HSA-373752'
p269
I21
sS'R-HSA-5654732'
p270
I23
sS'R-HSA-73933'
p271
I1
sS'R-HSA-5632927'
p272
I2
sS'R-HSA-73930'
p273
I2
sS'R-HSA-5632928'
p274
I3
sS'R-HSA-8935964'
p275
I5
sS'R-HSA-111933'
p276
I5
sS'R-HSA-111932'
p277
I5
sS'R-HSA-111931'
p278
I4
sS'R-HSA-8856828'
p279
I122
sS'R-HSA-2214320'
p280
I15
sS'R-HSA-1483255'
p281
I4
sS'R-HSA-5654219'
p282
I18
sS'R-HSA-419037'
p283
I43
sS'R-HSA-388841'
p284
I13
sS'R-HSA-388844'
p285
I20
sS'R-HSA-2032785'
p286
I30
sS'R-HSA-5602571'
p287
I3
sS'R-HSA-180585'
p288
I56
sS'R-HSA-947581'
p289
I8
sS'R-HSA-375165'
p290
I35
sS'R-HSA-936440'
p291
I40
sS'R-HSA-73843'
p292
I3
sS'R-HSA-442380'
p293
I10
sS'R-HSA-975578'
p294
I10
sS'R-HSA-447043'
p295
I9
sS'R-HSA-447041'
p296
I9
sS'R-HSA-975574'
p297
I1
sS'R-HSA-975577'
p298
I15
sS'R-HSA-3785653'
p299
I10
sS'R-HSA-427652'
p300
I2
sS'R-HSA-166016'
p301
I19
sS'R-HSA-180292'
p302
I11
sS'R-HSA-1566948'
p303
I18
sS'R-HSA-192105'
p304
I14
sS'R-HSA-211163'
p305
I4
sS'R-HSA-901042'
p306
I5
sS'R-HSA-2022928'
p307
I43
sS'R-HSA-419812'
p308
I11
sS'R-HSA-2022923'
p309
I11
sS'R-HSA-1253288'
p310
I10
sS'R-HSA-416572'
p311
I29
sS'R-HSA-204174'
p312
I15
sS'R-HSA-6785470'
p313
I5
sS'R-HSA-3656253'
p314
I12
sS'R-HSA-196025'
p315
I11
sS'R-HSA-2979096'
p316
I23
sS'R-HSA-8937144'
p317
I7
sS'R-HSA-3359463'
p318
I3
sS'R-HSA-3359462'
p319
I3
sS'R-HSA-5632681'
p320
I12
sS'R-HSA-3359469'
p321
I2
sS'R-HSA-2022857'
p322
I13
sS'R-HSA-2022854'
p323
I28
sS'R-HSA-8864260'
p324
I3
sS'R-HSA-1461973'
p325
I37
sS'R-HSA-1296072'
p326
I43
sS'R-HSA-174437'
p327
I10
sS'R-HSA-74259'
p328
I11
sS'R-HSA-174430'
p329
I8
sS'R-HSA-1362409'
p330
I12
sS'R-HSA-209822'
p331
I10
sS'R-HSA-8875555'
p332
I11
sS'R-HSA-1655829'
p333
I20
sS'R-HSA-8868766'
p334
I4
sS'R-HSA-5688890'
p335
I8
sS'R-HSA-217271'
p336
I3
sS'R-HSA-189451'
p337
I11
sS'R-HSA-196843'
p338
I7
sS'R-HSA-2428928'
p339
I6
sS'R-HSA-917729'
p340
I31
sS'R-HSA-2465910'
p341
I13
sS'R-HSA-6781827'
p342
I44
sS'R-HSA-156711'
p343
I16
sS'R-HSA-6781823'
p344
I53
sS'R-HSA-1606341'
p345
I8
sS'R-HSA-3828062'
p346
I2
sS'R-HSA-964739'
p347
I2
sS'R-HSA-264876'
p348
I30
sS'R-HSA-444411'
p349
I3
sS'R-HSA-264870'
p350
I12
sS'R-HSA-5213460'
p351
I17
sS'R-HSA-5619099'
p352
I4
sS'R-HSA-5603037'
p353
I5
sS'R-HSA-197264'
p354
I19
sS'R-HSA-5250955'
p355
I6
sS'R-HSA-451308'
p356
I10
sS'R-HSA-8851708'
p357
I23
sS'R-HSA-1614603'
p358
I2
sS'R-HSA-388479'
p359
I6
sS'R-HSA-451307'
p360
I2
sS'R-HSA-5250958'
p361
I8
sS'R-HSA-168888'
p362
I1
sS'R-HSA-168330'
p363
I7
sS'R-HSA-168333'
p364
I40
sS'R-HSA-168336'
p365
I9
sS'R-HSA-3359467'
p366
I2
sS'R-HSA-1306955'
p367
I6
sS'R-HSA-76009'
p368
I10
sS'R-HSA-444257'
p369
I6
sS'R-HSA-5661231'
p370
I14
sS'R-HSA-3645790'
p371
I4
sS'R-HSA-975163'
p372
I16
sS'R-HSA-111457'
p373
I2
sS'R-HSA-3371378'
p374
I11
sS'R-HSA-5368286'
p375
I87
sS'R-HSA-450321'
p376
I22
sS'R-HSA-111453'
p377
I8
sS'R-HSA-8939256'
p378
I6
sS'R-HSA-2424491'
p379
I38
sS'R-HSA-512988'
p380
I27
sS'R-HSA-5683678'
p381
I5
sS'R-HSA-937039'
p382
I14
sS'R-HSA-191859'
p383
I55
sS'R-HSA-174084'
p384
I63
sS'R-HSA-72649'
p385
I59
sS'R-HSA-8851805'
p386
I11
sS'R-HSA-5357956'
p387
I30
sS'R-HSA-3371571'
p388
I19
sS'R-HSA-110056'
p389
I11
sS'R-HSA-196791'
p390
I7
sS'R-HSA-114608'
p391
I128
sS'R-HSA-114604'
p392
I64
sS'R-HSA-140534'
p393
I18
sS'R-HSA-375170'
p394
I51
sS'R-HSA-77595'
p395
I19
sS'R-HSA-888568'
p396
I2
sS'R-HSA-211897'
p397
I1
sS'R-HSA-5340573'
p398
I1
sS'R-HSA-77352'
p399
I5
sS'R-HSA-77350'
p400
I5
sS'R-HSA-162699'
p401
I3
sS'R-HSA-372708'
p402
I15
sS'R-HSA-446388'
p403
I8
sS'R-HSA-6783984'
p404
I4
sS'R-HSA-114516'
p405
I5
sS'R-HSA-5602498'
p406
I12
sS'R-HSA-8873719'
p407
I65
sS'R-HSA-196108'
p408
I12
sS'R-HSA-193993'
p409
I6
sS'R-HSA-1483115'
p410
I9
sS'R-HSA-3214815'
p411
I60
sS'R-HSA-77305'
p412
I3
sS'R-HSA-190861'
p413
I38
sS'R-HSA-418555'
p414
I157
sS'R-HSA-390696'
p415
I9
sS'R-HSA-8964011'
p416
I5
sS'R-HSA-5678895'
p417
I61
sS'R-HSA-6807047'
p418
I4
sS'R-HSA-3656225'
p419
I7
sS'R-HSA-8853659'
p420
I41
sS'R-HSA-1237112'
p421
I6
sS'R-HSA-446652'
p422
I87
sS'R-HSA-1234158'
p423
I11
sS'R-HSA-193775'
p424
I14
sS'R-HSA-3359473'
p425
I2
sS'R-HSA-5140745'
p426
I13
sS'R-HSA-3359474'
p427
I1
sS'R-HSA-3359475'
p428
I2
sS'R-HSA-167060'
p429
I5
sS'R-HSA-3359478'
p430
I2
sS'R-HSA-8853383'
p431
I4
sS'R-HSA-2565942'
p432
I87
sS'R-HSA-8862803'
p433
I31
sS'R-HSA-179409'
p434
I25
sS'R-HSA-109704'
p435
I42
sS'R-HSA-352230'
p436
I34
sS'R-HSA-70221'
p437
I21
sS'R-HSA-352238'
p438
I3
sS'R-HSA-1296041'
p439
I25
sS'R-HSA-1300642'
p440
I9
sS'R-HSA-1300645'
p441
I1
sS'R-HSA-1300644'
p442
I10
sS'R-HSA-174403'
p443
I13
sS'R-HSA-1236978'
p444
I55
sS'R-HSA-1236973'
p445
I8
sS'R-HSA-1236974'
p446
I230
sS'R-HSA-917937'
p447
I30
sS'R-HSA-418594'
p448
I251
sS'R-HSA-5576893'
p449
I28
sS'R-HSA-2029485'
p450
I115
sS'R-HSA-168188'
p451
I4
sS'R-HSA-5576890'
p452
I8
sS'R-HSA-2029481'
p453
I196
sS'R-HSA-2029482'
p454
I182
sS'R-HSA-5576894'
p455
I7
sS'R-HSA-168181'
p456
I2
sS'R-HSA-168638'
p457
I38
sS'R-HSA-70171'
p458
I44
sS'R-HSA-192823'
p459
I101
sS'R-HSA-163316'
p460
I1
sS'R-HSA-69481'
p461
I51
sS'R-HSA-422356'
p462
I38
sS'R-HSA-1307965'
p463
I3
sS'R-HSA-167200'
p464
I71
sS'R-HSA-430116'
p465
I12
sS'R-HSA-880009'
p466
I3
sS'R-HSA-5221030'
p467
I4
sS'R-HSA-1236394'
p468
I14
sS'R-HSA-5617833'
p469
I20
sS'R-HSA-381771'
p470
I21
sS'R-HSA-189085'
p471
I10
sS'R-HSA-5610783'
p472
I60
sS'R-HSA-5668541'
p473
I68
sS'R-HSA-5610787'
p474
I56
sS'R-HSA-5610785'
p475
I60
sS'R-HSA-5674400'
p476
I26
sS'R-HSA-6790901'
p477
I60
sS'R-HSA-68827'
p478
I59
sS'R-HSA-8941237'
p479
I4
sS'R-HSA-1433559'
p480
I18
sS'R-HSA-205025'
p481
I6
sS'R-HSA-72086'
p482
I29
sS'R-HSA-1433557'
p483
I45
sS'R-HSA-72187'
p484
I57
sS'R-HSA-5655291'
p485
I11
sS'R-HSA-140834'
p486
I5
sS'R-HSA-140837'
p487
I22
sS'R-HSA-442729'
p488
I15
sS'R-HSA-8939242'
p489
I10
sS'R-HSA-8939243'
p490
I37
sS'R-HSA-8939246'
p491
I7
sS'R-HSA-8939247'
p492
I5
sS'R-HSA-8939245'
p493
I6
sS'R-HSA-211957'
p494
I1
sS'R-HSA-438066'
p495
I17
sS'R-HSA-2660826'
p496
I7
sS'R-HSA-5620922'
p497
I23
sS'R-HSA-211958'
p498
I12
sS'R-HSA-5620924'
p499
I70
sS'R-HSA-6803544'
p500
I4
sS'R-HSA-1483076'
p501
I1
sS'R-HSA-3371568'
p502
I14
sS'R-HSA-4420097'
p503
I76
sS'R-HSA-379398'
p504
I2
sS'R-HSA-110314'
p505
I30
sS'R-HSA-379397'
p506
I3
sS'R-HSA-110312'
p507
I16
sS'R-HSA-8936459'
p508
I66
sS'R-HSA-73863'
p509
I32
sS'R-HSA-3247509'
p510
I9
sS'R-HSA-77346'
p511
I6
sS'R-HSA-888590'
p512
I13
sS'R-HSA-888593'
p513
I4
sS'R-HSA-114294'
p514
I2
sS'R-HSA-77348'
p515
I5
sS'R-HSA-1170546'
p516
I21
sS'R-HSA-201688'
p517
I8
sS'R-HSA-5626467'
p518
I31
sS'R-HSA-5689603'
p519
I101
sS'R-HSA-201681'
p520
I39
sS'R-HSA-113418'
p521
I33
sS'R-HSA-1489509'
p522
I7
sS'R-HSA-5340588'
p523
I8
sS'R-HSA-1963640'
p524
I24
sS'R-HSA-1963642'
p525
I18
sS'R-HSA-114508'
p526
I22
sS'R-HSA-1660662'
p527
I46
sS'R-HSA-1660661'
p528
I44
sS'R-HSA-187706'
p529
I5
sS'R-HSA-389356'
p530
I9
sS'R-HSA-389357'
p531
I22
sS'R-HSA-389359'
p532
I14
sS'R-HSA-1483101'
p533
I2
sS'R-HSA-190873'
p534
I12
sS'R-HSA-190872'
p535
I1
sS'R-HSA-199220'
p536
I9
sS'R-HSA-77111'
p537
I8
sS'R-HSA-163767'
p538
I7
sS'R-HSA-163765'
p539
I10
sS'R-HSA-3656237'
p540
I12
sS'R-HSA-5210891'
p541
I16
sS'R-HSA-1369007'
p542
I4
sS'R-HSA-8956319'
p543
I1
sS'R-HSA-191273'
p544
I22
sS'R-HSA-6782135'
p545
I65
sS'R-HSA-5579026'
p546
I4
sS'R-HSA-2426168'
p547
I49
sS'R-HSA-69017'
p548
I51
sS'R-HSA-2022870'
p549
I20
sS'R-HSA-5625740'
p550
I31
sS'R-HSA-6806942'
p551
I6
sS'R-HSA-162791'
p552
I7
sS'R-HSA-8852405'
p553
I5
sS'R-HSA-177128'
p554
I8
sS'R-HSA-8950505'
p555
I38
sS'R-HSA-5684264'
p556
I17
sS'R-HSA-1300652'
p557
I5
sS'R-HSA-174414'
p558
I6
sS'R-HSA-174417'
p559
I5
sS'R-HSA-174411'
p560
I14
sS'R-HSA-192905'
p561
I6
sS'R-HSA-1660514'
p562
I21
sS'R-HSA-193692'
p563
I10
sS'R-HSA-379726'
p564
I21
sS'R-HSA-69656'
p565
I26
sS'R-HSA-8948700'
p566
I8
sS'R-HSA-4086400'
p567
I33
sS'R-HSA-390648'
p568
I5
sS'R-HSA-6785631'
p569
I18
sS'R-HSA-350864'
p570
I3
sS'R-HSA-8985947'
p571
I3
sS'R-HSA-381340'
p572
I133
sS'R-HSA-3560783'
p573
I19
sS'R-HSA-140180'
p574
I1
sS'R-HSA-8877627'
p575
I1
sS'R-HSA-5083628'
p576
I1
sS'R-HSA-1433617'
p577
I12
sS'R-HSA-804914'
p578
I8
sS'R-HSA-164525'
p579
I7
sS'R-HSA-844623'
p580
I9
sS'R-HSA-442742'
p581
I13
sS'R-HSA-977442'
p582
I3
sS'R-HSA-977441'
p583
I13
sS'R-HSA-5673000'
p584
I25
sS'R-HSA-69231'
p585
I44
sS'R-HSA-977444'
p586
I2
sS'R-HSA-432142'
p587
I17
sS'R-HSA-2730905'
p588
I198
sS'R-HSA-1296052'
p589
I9
sS'R-HSA-1296053'
p590
I4
sS'R-HSA-444473'
p591
I9
sS'R-HSA-71182'
p592
I11
sS'R-HSA-169911'
p593
I2
sS'R-HSA-1222538'
p594
I13
sS'R-HSA-1236382'
p595
I19
sS'R-HSA-70614'
p596
I26
sS'R-HSA-182971'
p597
I25
sS'R-HSA-2408557'
p598
I94
sS'R-HSA-2408552'
p599
I1
sS'R-HSA-2408550'
p600
I4
sS'R-HSA-5685939'
p601
I10
sS'R-HSA-5685938'
p602
I37
sS'R-HSA-4570464'
p603
I49
sS'R-HSA-111452'
p604
I2
sS'R-HSA-2142670'
p605
I8
sS'R-HSA-450520'
p606
I8
sS'R-HSA-5576886'
p607
I19
sS'R-HSA-2142850'
p608
I5
sS'R-HSA-111458'
p609
I3
sS'R-HSA-111459'
p610
I5
sS'R-HSA-376172'
p611
I12
sS'R-HSA-376176'
p612
I14
sS'R-HSA-429593'
p613
I3
sS'R-HSA-5250992'
p614
I5
sS'R-HSA-1482883'
p615
I8
sS'R-HSA-451927'
p616
I14
sS'R-HSA-975298'
p617
I26
sS'R-HSA-2142696'
p618
I1
sS'R-HSA-2142691'
p619
I21
sS'R-HSA-6783310'
p620
I38
sS'R-HSA-170145'
p621
I3
sS'R-HSA-3299685'
p622
I42
sS'R-HSA-400206'
p623
I20
sS'R-HSA-1299308'
p624
I3
sS'R-HSA-373076'
p625
I19
sS'R-HSA-75205'
p626
I13
sS'R-HSA-8981607'
p627
I3
sS'R-HSA-211945'
p628
I20
sS'R-HSA-1475029'
p629
I12
sS'R-HSA-425366'
p630
I11
sS'R-HSA-5654710'
p631
I19
sS'R-HSA-5654712'
p632
I22
sS'R-HSA-5654719'
p633
I21
sS'R-HSA-5689901'
p634
I31
sS'R-HSA-170968'
p635
I15
sS'R-HSA-442660'
p636
I19
sS'R-HSA-2028269'
p637
I20
sS'R-HSA-187024'
p638
I5
sS'R-HSA-5624138'
p639
I5
sS'R-HSA-5673001'
p640
I129
sS'R-HSA-1461957'
p641
I38
sS'R-HSA-1839128'
p642
I1
sS'R-HSA-1839120'
p643
I2
sS'R-HSA-1839122'
p644
I12
sS'R-HSA-6798163'
p645
I6
sS'R-HSA-163680'
p646
I14
sS'R-HSA-163685'
p647
I5
sS'R-HSA-8866652'
p648
I35
sS'R-HSA-8866654'
p649
I56
sS'R-HSA-8951911'
p650
I2
sS'R-HSA-5358606'
p651
I19
sS'R-HSA-420092'
p652
I34
sS'R-HSA-166665'
p653
I8
sS'R-HSA-2473224'
p654
I4
sS'R-HSA-166663'
p655
I105
sS'R-HSA-166662'
p656
I8
sS'R-HSA-5336415'
p657
I7
sS'R-HSA-202670'
p658
I13
sS'R-HSA-351906'
p659
I11
sS'R-HSA-77108'
p660
I4
sS'R-HSA-8964038'
p661
I20
sS'R-HSA-983231'
p662
I107
sS'R-HSA-2466712'
p663
I1
sS'R-HSA-163754'
p664
I2
sS'R-HSA-391908'
p665
I9
sS'R-HSA-391903'
p666
I1
sS'R-HSA-391906'
p667
I5
sS'R-HSA-426486'
p668
I9
sS'R-HSA-70350'
p669
I5
sS'R-HSA-2024096'
p670
I22
sS'R-HSA-3359454'
p671
I1
sS'R-HSA-380994'
p672
I25
sS'R-HSA-3359457'
p673
I1
sS'R-HSA-5579031'
p674
I2
sS'R-HSA-167044'
p675
I15
sS'R-HSA-8874081'
p676
I30
sS'R-HSA-456926'
p677
I54
sS'R-HSA-6811438'
p678
I44
sS'R-HSA-6811436'
p679
I52
sS'R-HSA-6811434'
p680
I102
sS'R-HSA-4608870'
p681
I65
sS'R-HSA-6782210'
p682
I64
sS'R-HSA-4641262'
p683
I57
sS'R-HSA-4641263'
p684
I21
sS'R-HSA-4641265'
p685
I21
sS'R-HSA-193681'
p686
I3
sS'R-HSA-8875360'
p687
I20
sS'R-HSA-4551638'
p688
I62
sS'R-HSA-8963901'
p689
I10
sS'R-HSA-70370'
p690
I6
sS'R-HSA-390651'
p691
I5
sS'R-HSA-390650'
p692
I4
sS'R-HSA-5688354'
p693
I2
sS'R-HSA-380284'
p694
I69
sS'R-HSA-196836'
p695
I8
sS'R-HSA-6785807'
p696
I111
sS'R-HSA-8876725'
p697
I17
sS'R-HSA-212718'
p698
I3
sS'R-HSA-163210'
p699
I18
sS'R-HSA-1912408'
p700
I39
sS'R-HSA-168298'
p701
I9
sS'R-HSA-5682910'
p702
I14
sS'R-HSA-5545483'
p703
I2
sS'R-HSA-162588'
p704
I36
sS'R-HSA-5578749'
p705
I78
sS'R-HSA-162585'
p706
I8
sS'R-HSA-1296025'
p707
I4
sS'R-HSA-69229'
p708
I53
sS'R-HSA-168275'
p709
I11
sS'R-HSA-168276'
p710
I41
sS'R-HSA-168277'
p711
I4
sS'R-HSA-168271'
p712
I38
sS'R-HSA-71737'
p713
I2
sS'R-HSA-350054'
p714
I13
sS'R-HSA-164516'
p715
I7
sS'R-HSA-111447'
p716
I16
sS'R-HSA-111446'
p717
I3
sS'R-HSA-180897'
p718
I4
sS'R-HSA-112314'
p719
I14
sS'R-HSA-112310'
p720
I1
sS'R-HSA-112311'
p721
I4
sS'R-HSA-5250981'
p722
I6
sS'R-HSA-1295596'
p723
I16
sS'R-HSA-5250989'
p724
I4
sS'R-HSA-77588'
p725
I11
sS'R-HSA-1614517'
p726
I6
sS'R-HSA-112382'
p727
I61
sS'R-HSA-2142688'
p728
I9
sS'R-HSA-168874'
p729
I3
sS'R-HSA-373080'
p730
I52
sS'R-HSA-354194'
p731
I15
sS'R-HSA-975110'
p732
I15
sS'R-HSA-354192'
p733
I23
sS'R-HSA-174113'
p734
I55
sS'R-HSA-2172127'
p735
I25
sS'R-HSA-2534343'
p736
I1
sS'R-HSA-418217'
p737
I20
sS'R-HSA-6796648'
p738
I65
sS'R-HSA-1299316'
p739
I2
sS'R-HSA-937042'
p740
I10
sS'R-HSA-937041'
p741
I24
sS'R-HSA-399719'
p742
I17
sS'R-HSA-211976'
p743
I25
sS'R-HSA-69200'
p744
I4
sS'R-HSA-442982'
p745
I17
sS'R-HSA-399710'
p746
I4
sS'R-HSA-211979'
p747
I12
sS'R-HSA-389599'
p748
I6
sS'R-HSA-912631'
p749
I35
sS'R-HSA-6799198'
p750
I55
sS'R-HSA-8852276'
p751
I78
sS'R-HSA-5654700'
p752
I28
sS'R-HSA-5654706'
p753
I21
sS'R-HSA-5654704'
p754
I20
sS'R-HSA-1169092'
p755
I7
sS'R-HSA-1169091'
p756
I73
sS'R-HSA-210991'
p757
I25
sS'R-HSA-5635851'
p758
I3
sS'R-HSA-110330'
p759
I3
sS'R-HSA-210990'
p760
I12
sS'R-HSA-163560'
p761
I25
sS'R-HSA-1227986'
p762
I21
sS'R-HSA-983695'
p763
I176
sS'R-HSA-3642279'
p764
I2
sS'R-HSA-1250347'
p765
I16
sS'R-HSA-448706'
p766
I7
sS'R-HSA-1250342'
p767
I11
sS'R-HSA-202040'
p768
I28
sS'R-HSA-1839130'
p769
I14
sS'R-HSA-3065678'
p770
I10
sS'R-HSA-3065679'
p771
I6
sS'R-HSA-3065676'
p772
I7
sS'R-HSA-170822'
p773
I34
sS'R-HSA-1538133'
p774
I18
sS'R-HSA-8942233'
p775
I3
sS'R-HSA-200425'
p776
I14
sS'R-HSA-8984722'
p777
I7
sS'R-HSA-173736'
p778
I5
sS'R-HSA-3214847'
p779
I138
sS'R-HSA-3214842'
p780
I27
sS'R-HSA-3214841'
p781
I47
sS'R-HSA-113501'
p782
I14
sS'R-HSA-8943723'
p783
I9
sS'R-HSA-2160916'
p784
I12
sS'R-HSA-113507'
p785
I9
sS'R-HSA-8951671'
p786
I22
sS'R-HSA-428890'
p787
I14
sS'R-HSA-168255'
p788
I9
sS'R-HSA-8964026'
p789
I8
sS'R-HSA-446193'
p790
I16
sS'R-HSA-1250196'
p791
I44
sS'R-HSA-446199'
p792
I6
sS'R-HSA-166058'
p793
I20
sS'R-HSA-446353'
p794
I12
sS'R-HSA-75953'
p795
I46
sS'R-HSA-75955'
p796
I59
sS'R-HSA-380615'
p797
I1
sS'R-HSA-380612'
p798
I2
sS'R-HSA-5663213'
p799
I67
sS'R-HSA-2467813'
p800
I191
sS'R-HSA-448424'
p801
I8
sS'R-HSA-1799339'
p802
I207
sS'R-HSA-2995383'
p803
I14
sS'R-HSA-5690714'
p804
I70
sS'R-HSA-418457'
p805
I20
sS'R-HSA-390247'
p806
I11
sS'R-HSA-2033519'
p807
I19
sS'R-HSA-2033515'
p808
I1
sS'R-HSA-2033514'
p809
I14
sS'R-HSA-445095'
p810
I44
sS'R-HSA-1234176'
p811
I78
sS'R-HSA-4641257'
p812
I55
sS'R-HSA-5419276'
p813
I87
sS'R-HSA-163358'
p814
I6
sS'R-HSA-163359'
p815
I27
sS'R-HSA-112122'
p816
I1
sS'R-HSA-112126'
p817
I4
sS'R-HSA-977606'
p818
I135
sS'R-HSA-6807505'
p819
I140
sS'R-HSA-426496'
p820
I7
sS'R-HSA-390666'
p821
I12
sS'R-HSA-196807'
p822
I12
sS'R-HSA-1251932'
p823
I4
sS'R-HSA-192814'
p824
I4
sS'R-HSA-8854214'
p825
I45
sS'R-HSA-400511'
p826
I14
sS'R-HSA-3301854'
p827
I38
sS'R-HSA-68616'
p828
I6
sS'R-HSA-167238'
p829
I35
sS'R-HSA-167161'
p830
I46
sS'R-HSA-2871796'
p831
I121
sS'R-HSA-156590'
p832
I24
sS'R-HSA-167160'
p833
I27
sS'R-HSA-8853338'
p834
I24
sS'R-HSA-162599'
p835
I2
sS'R-HSA-3000497'
p836
I4
sS'R-HSA-72702'
p837
I59
sS'R-HSA-8853336'
p838
I3
sS'R-HSA-72706'
p839
I113
sS'R-HSA-8853333'
p840
I1
sS'R-HSA-1368082'
p841
I33
sS'R-HSA-5688031'
p842
I3
sS'R-HSA-70635'
p843
I10
sS'R-HSA-177929'
p844
I8
sS'R-HSA-5693616'
p845
I39
sS'R-HSA-112308'
p846
I13
sS'R-HSA-5625970'
p847
I11
sS'R-HSA-112303'
p848
I5
sS'R-HSA-5661270'
p849
I5
sS'R-HSA-425561'
p850
I11
sS'R-HSA-6798695'
p851
I480
sS'R-HSA-5365859'
p852
I22
sS'R-HSA-4420332'
p853
I19
sS'R-HSA-3304356'
p854
I6
sS'R-HSA-937072'
p855
I17
sS'R-HSA-5693548'
p856
I6
sS'R-HSA-2454202'
p857
I183
sS'R-HSA-5620912'
p858
I97
sS'R-HSA-5620916'
p859
I29
sS'R-HSA-180910'
p860
I42
sS'R-HSA-1474151'
p861
I10
sS'R-HSA-428643'
p862
I10
sS'R-HSA-381033'
p863
I4
sS'R-HSA-174048'
p864
I23
sS'R-HSA-5654733'
p865
I24
sS'R-HSA-381038'
p866
I55
sS'R-HSA-203754'
p867
I2
sS'R-HSA-68884'
p868
I4
sS'R-HSA-975634'
p869
I51
sS'R-HSA-110320'
p870
I19
sS'R-HSA-110329'
p871
I8
sS'R-HSA-110328'
p872
I8
sS'R-HSA-3371599'
p873
I6
sS'R-HSA-73817'
p874
I12
sS'R-HSA-425410'
p875
I9
sS'R-HSA-5627123'
p876
I36
sS'R-HSA-210500'
p877
I24
sS'R-HSA-1660516'
p878
I20
sS'R-HSA-1660517'
p879
I15
sS'R-HSA-447038'
p880
I7
sS'R-HSA-6814848'
p881
I7
sS'R-HSA-193807'
p882
I15
sS'R-HSA-1502540'
p883
I16
sS'R-HSA-5696400'
p884
I41
sS'R-HSA-390522'
p885
I36
sS'R-HSA-75892'
p886
I17
sS'R-HSA-75893'
p887
I7
sS'R-HSA-75896'
p888
I2
sS'R-HSA-5658623'
p889
I13
sS'R-HSA-196780'
p890
I11
sS'R-HSA-196783'
p891
I8
sS'R-HSA-1483152'
p892
I2
sS'R-HSA-3214858'
p893
I49
sS'R-HSA-156581'
p894
I14
sS'R-HSA-8951664'
p895
I236
sS'R-HSA-139910'
p896
I3
sS'R-HSA-139915'
p897
I9
sS'R-HSA-382556'
p898
I82
sS'R-HSA-418597'
p899
I58
sS'R-HSA-194313'
p900
I5
sS'R-HSA-418592'
p901
I47
sS'R-HSA-389960'
p902
I25
sS'R-HSA-416700'
p903
I20
sS'R-HSA-844455'
p904
I3
sS'R-HSA-844456'
p905
I17
sS'R-HSA-1474228'
p906
I111
sS'R-HSA-1592389'
p907
I33
sS'R-HSA-446343'
p908
I4
sS'R-HSA-5663220'
p909
I147
sS'R-HSA-380972'
p910
I29
sS'R-HSA-8876493'
p911
I10
sS'R-HSA-428930'
p912
I23
sS'R-HSA-2132295'
p913
I141
sS'R-HSA-6784531'
p914
I60
sS'R-HSA-1169408'
p915
I78
sS'R-HSA-72662'
p916
I7
sS'R-HSA-8849469'
p917
I9
sS'R-HSA-2691232'
p918
I15
sS'R-HSA-192869'
p919
I4
sS'R-HSA-176408'
p920
I24
sS'R-HSA-176409'
p921
I20
sS'R-HSA-71403'
p922
I19
sS'R-HSA-196819'
p923
I5
sS'R-HSA-176407'
p924
I19
sS'R-HSA-2162123'
p925
I15
sS'R-HSA-6783783'
p926
I47
sS'R-HSA-211916'
p927
I6
sS'R-HSA-198323'
p928
I17
sS'R-HSA-1912420'
p929
I22
sS'R-HSA-205017'
p930
I3
sS'R-HSA-2168880'
p931
I99
sS'R-HSA-156588'
p932
I21
sS'R-HSA-3928665'
p933
I64
sS'R-HSA-3928664'
p934
I30
sS'R-HSA-156584'
p935
I19
sS'R-HSA-69202'
p936
I27
sS'R-HSA-156582'
p937
I2
sS'R-HSA-3928663'
p938
I56
sS'R-HSA-3928662'
p939
I65
sS'R-HSA-6803211'
p940
I12
sS'R-HSA-162658'
p941
I19
sS'R-HSA-210993'
p942
I20
sS'R-HSA-73621'
p943
I12
sS'R-HSA-2564830'
p944
I13
sS'R-HSA-3000480'
p945
I27
sS'R-HSA-5218920'
p946
I27
sS'R-HSA-5218921'
p947
I20
sS'R-HSA-3000484'
p948
I14
sS'R-HSA-6803529'
p949
I26
sS'R-HSA-8951936'
p950
I9
sS'R-HSA-71240'
p951
I14
sS'R-HSA-8863795'
p952
I27
sS'R-HSA-75094'
p953
I8
sS'R-HSA-111465'
p954
I18
sS'R-HSA-111464'
p955
I7
sS'R-HSA-5693607'
p956
I81
sS'R-HSA-5173214'
p957
I39
sS'R-HSA-5685942'
p958
I48
sS'R-HSA-450513'
p959
I17
sS'R-HSA-5656169'
p960
I32
sS'R-HSA-5607761'
p961
I60
sS'R-HSA-5607763'
p962
I12
sS'R-HSA-5607764'
p963
I81
sS'R-HSA-68881'
p964
I2
sS'R-HSA-175474'
p965
I13
sS'R-HSA-975138'
p966
I10
sS'R-HSA-450604'
p967
I18
sS'R-HSA-8964572'
p968
I6
sS'R-HSA-6787639'
p969
I6
sS'R-HSA-5693554'
p970
I26
sS'R-HSA-5674135'
p971
I40
sS'R-HSA-70921'
p972
I8
sS'R-HSA-6782861'
p973
I7
sS'R-HSA-168928'
p974
I17
sS'R-HSA-199920'
p975
I7
sS'R-HSA-381042'
p976
I4
sS'R-HSA-1980150'
p977
I12
sS'R-HSA-5654720'
p978
I20
sS'R-HSA-5654726'
p979
I28
sS'R-HSA-5654727'
p980
I30
sS'R-HSA-2393930'
p981
I10
sS'R-HSA-2299718'
p982
I45
sS'R-HSA-2892247'
p983
I13
sS'R-HSA-182218'
p984
I8
sS'R-HSA-202424'
p985
I116
sS'R-HSA-110357'
p986
I9
sS'R-HSA-77387'
p987
I26
sS'R-HSA-176974'
p988
I16
sS'R-HSA-111885'
p989
I3
sS'R-HSA-6814122'
p990
I42
sS'R-HSA-5632684'
p991
I80
sS'R-HSA-1839117'
p992
I18
sS'R-HSA-3371453'
p993
I73
sS'R-HSA-5602680'
p994
I4
sS'R-HSA-202733'
p995
I196
sS'R-HSA-389397'
p996
I8
sS'R-HSA-3878781'
p997
I4
sS'R-HSA-447115'
p998
I34
sS'R-HSA-202427'
p999
I41
sS'R-HSA-5358493'
p1000
I9
sS'R-HSA-629587'
p1001
I7
sS'R-HSA-1483148'
p1002
I8
sS'R-HSA-173599'
p1003
I3
sS'R-HSA-933542'
p1004
I34
sS'R-HSA-933543'
p1005
I12
sS'R-HSA-192456'
p1006
I7
sS'R-HSA-389957'
p1007
I27
sS'R-HSA-5687128'
p1008
I89
sS'R-HSA-194306'
p1009
I4
sS'R-HSA-452723'
p1010
I29
sS'R-HSA-6809583'
p1011
I1
sS'R-HSA-203641'
p1012
I5
sS'R-HSA-8949613'
p1013
I31
sS'R-HSA-5651801'
p1014
I21
sS'R-HSA-2470946'
p1015
I10
sS'R-HSA-3359485'
p1016
I2
sS'R-HSA-432722'
p1017
I56
sS'R-HSA-977068'
p1018
I26
sS'R-HSA-432720'
p1019
I37
sS'R-HSA-983170'
p1020
I170
sS'R-HSA-74713'
p1021
I5
sS'R-HSA-8874211'
p1022
I12
sS'R-HSA-177162'
p1023
I2
sS'R-HSA-156827'
p1024
I112
sS'R-HSA-5637810'
p1025
I15
sS'R-HSA-2514853'
p1026
I16
sS'R-HSA-2514859'
p1027
I43
sS'R-HSA-176187'
p1028
I37
sS'R-HSA-1679131'
p1029
I13
sS'R-HSA-8948747'
p1030
I9
sS'R-HSA-69166'
p1031
I14
sS'R-HSA-432030'
p1032
I2
sS'R-HSA-8854050'
p1033
I55
sS'R-HSA-190322'
p1034
I13
sS'R-HSA-3814836'
p1035
I2
sS'R-HSA-8854691'
p1036
I14
sS'R-HSA-8951430'
p1037
I9
sS'R-HSA-176417'
p1038
I6
sS'R-HSA-176412'
p1039
I19
sS'R-HSA-75153'
p1040
I3
sS'R-HSA-6782315'
p1041
I38
sS'R-HSA-75157'
p1042
I5
sS'R-HSA-170984'
p1043
I12
sS'R-HSA-5578775'
p1044
I59
sS'R-HSA-916853'
p1045
I2
sS'R-HSA-69563'
p1046
I7
sS'R-HSA-3000471'
p1047
I9
sS'R-HSA-6803207'
p1048
I12
sS'R-HSA-6803204'
p1049
I20
sS'R-HSA-6803205'
p1050
I14
sS'R-HSA-1650814'
p1051
I67
sS'R-HSA-68962'
p1052
I32
sS'R-HSA-6793080'
p1053
I6
sS'R-HSA-419408'
p1054
I14
sS'R-HSA-5624958'
p1055
I3
sS'R-HSA-5357572'
p1056
I3
sS'R-HSA-179812'
p1057
I7
sS'R-HSA-2142816'
p1058
I9
sS'R-HSA-73728'
p1059
I32
sS'R-HSA-212436'
p1060
I358
sS'R-HSA-426117'
p1061
I7
sS'R-HSA-392023'
p1062
I3
sS'R-HSA-3108214'
p1063
I79
sS'R-HSA-69300'
p1064
I17
sS'R-HSA-210746'
p1065
I5
sS'R-HSA-210747'
p1066
I8
sS'R-HSA-210744'
p1067
I7
sS'R-HSA-210745'
p1068
I20
sS'R-HSA-3238698'
p1069
I45
sS'R-HSA-5263617'
p1070
I1
sS'R-HSA-71384'
p1071
I12
sS'R-HSA-8955332'
p1072
I60
sS'R-HSA-881907'
p1073
I9
sS'R-HSA-2046106'
p1074
I14
sS'R-HSA-450385'
p1075
I17
sS'R-HSA-2046105'
p1076
I8
sS'R-HSA-5628897'
p1077
I88
sS'R-HSA-69416'
p1078
I11
sS'R-HSA-2142789'
p1079
I8
sS'R-HSA-997272'
p1080
I25
sS'R-HSA-5693568'
p1081
I32
sS'R-HSA-1299344'
p1082
I1
sS'R-HSA-212300'
p1083
I42
sS'R-HSA-5693565'
p1084
I59
sS'R-HSA-164940'
p1085
I11
sS'R-HSA-141430'
p1086
I20
sS'R-HSA-392517'
p1087
I16
sS'R-HSA-164944'
p1088
I9
sS'R-HSA-549127'
p1089
I10
sS'R-HSA-1980148'
p1090
I12
sS'R-HSA-1663150'
p1091
I13
sS'R-HSA-194840'
p1092
I141
sS'R-HSA-1299503'
p1093
I3
sS'R-HSA-111448'
p1094
I5
sS'R-HSA-202433'
p1095
I54
sS'R-HSA-202430'
p1096
I38
sS'R-HSA-1368071'
p1097
I6
sS'R-HSA-203927'
p1098
I23
sS'R-HSA-2023837'
p1099
I2
sS'R-HSA-165181'
p1100
I3
sS'R-HSA-173107'
p1101
I12
sS'R-HSA-6787450'
p1102
I8
sS'R-HSA-5250982'
p1103
I2
sS'R-HSA-982772'
p1104
I32
sS'R-HSA-76005'
p1105
I3
sS'R-HSA-5653890'
p1106
I3
sS'R-HSA-5696397'
p1107
I25
sS'R-HSA-5689877'
p1108
I12
sS'R-HSA-5696395'
p1109
I43
sS'R-HSA-5696394'
p1110
I38
sS'R-HSA-428359'
p1111
I3
sS'R-HSA-141405'
p1112
I2
sS'R-HSA-2453902'
p1113
I23
sS'R-HSA-913709'
p1114
I58
sS'R-HSA-629597'
p1115
I9
sS'R-HSA-629594'
p1116
I11
sS'R-HSA-389542'
p1117
I1
sS'R-HSA-159740'
p1118
I11
sS'R-HSA-389948'
p1119
I42
sS'R-HSA-2187335'
p1120
I8
sS'R-HSA-8849474'
p1121
I5
sS'R-HSA-8849471'
p1122
I18
sS'R-HSA-8849470'
p1123
I6
sS'R-HSA-8849473'
p1124
I5
sS'R-HSA-8849472'
p1125
I3
sS'R-HSA-390471'
p1126
I48
sS'R-HSA-8981373'
p1127
I4
sS'R-HSA-156902'
p1128
I91
sS'R-HSA-191647'
p1129
I5
sS'R-HSA-199418'
p1130
I8
sS'R-HSA-2894862'
p1131
I58
sS'R-HSA-5362798'
p1132
I12
sS'R-HSA-1247673'
p1133
I8
sS'R-HSA-8856825'
p1134
I98
sS'R-HSA-2562578'
p1135
I10
sS'R-HSA-983168'
p1136
I309
sS'R-HSA-2993913'
p1137
I10
sS'R-HSA-111995'
p1138
I2
sS'R-HSA-8847993'
p1139
I16
sS'R-HSA-6802953'
p1140
I4
sS'R-HSA-6802952'
p1141
I61
sS'R-HSA-6802955'
p1142
I40
sS'R-HSA-416476'
p1143
I174
sS'R-HSA-6799990'
p1144
I6
sS'R-HSA-933541'
p1145
I32
sS'R-HSA-198693'
p1146
I10
sS'R-HSA-8948751'
p1147
I69
sS'R-HSA-165054'
p1148
I38
sS'R-HSA-193648'
p1149
I60
sS'R-HSA-383280'
p1150
I84
sS'R-HSA-2024101'
p1151
I14
sS'R-HSA-167152'
p1152
I48
sS'R-HSA-111367'
p1153
I10
sS'R-HSA-167158'
p1154
I33
sS'R-HSA-3656532'
p1155
I7
sS'R-HSA-3656535'
p1156
I4
sS'R-HSA-379716'
p1157
I24
sS'R-HSA-480985'
p1158
I2
sS'R-HSA-539107'
p1159
I33
sS'R-HSA-1834949'
p1160
I22
sS'R-HSA-166020'
p1161
I2
sS'R-HSA-1834941'
p1162
I5
sS'R-HSA-112043'
p1163
I28
sS'R-HSA-444821'
p1164
I8
sS'R-HSA-975871'
p1165
I10
sS'R-HSA-5218900'
p1166
I14
sS'R-HSA-72731'
p1167
I8
sS'R-HSA-2173789'
p1168
I12
sS'R-HSA-2173788'
p1169
I36
sS'R-HSA-71262'
p1170
I4
sS'R-HSA-5694530'
p1171
I33
sS'R-HSA-68952'
p1172
I8
sS'R-HSA-2586552'
p1173
I16
sS'R-HSA-1236977'
p1174
I79
sS'R-HSA-71064'
p1175
I12
sS'R-HSA-1181150'
p1176
I23
sS'R-HSA-164378'
p1177
I18
sS'R-HSA-977347'
p1178
I8
sS'R-HSA-5578768'
p1179
I12
sS'R-HSA-69091'
p1180
I14
sS'R-HSA-2395516'
p1181
I3
sS'R-HSA-6806664'
p1182
I3
sS'R-HSA-1855183'
p1183
I14
sS'R-HSA-400253'
p1184
I58
sS'R-HSA-8948216'
p1185
I44
sS'R-HSA-174154'
p1186
I67
sS'R-HSA-5660668'
p1187
I6
sS'R-HSA-399997'
p1188
I17
sS'R-HSA-165158'
p1189
I4
sS'R-HSA-165159'
p1190
I17
sS'R-HSA-350562'
p1191
I51
sS'R-HSA-209968'
p1192
I7
sS'R-HSA-4085001'
p1193
I33
sS'R-HSA-211935'
p1194
I15
sS'R-HSA-5658034'
p1195
I3
sS'R-HSA-5693571'
p1196
I52
sS'R-HSA-5576892'
p1197
I45
sS'R-HSA-5693579'
p1198
I25
sS'R-HSA-2142770'
p1199
I6
sS'R-HSA-71288'
p1200
I10
sS'R-HSA-6788467'
p1201
I17
sS'R-HSA-1482839'
p1202
I29
sS'R-HSA-1482788'
p1203
I27
sS'R-HSA-8875791'
p1204
I4
sS'R-HSA-180746'
p1205
I40
sS'R-HSA-170670'
p1206
I27
sS'R-HSA-420597'
p1207
I7
sS'R-HSA-70895'
p1208
I19
sS'R-HSA-375276'
p1209
I106
sS'R-HSA-3371497'
p1210
I56
sS'R-HSA-8866423'
p1211
I5
sS'R-HSA-8866427'
p1212
I12
sS'R-HSA-196757'
p1213
I18
sS'R-HSA-5683177'
p1214
I2
sS'R-HSA-1483166'
p1215
I39
sS'R-HSA-749476'
p1216
I41
sS'R-HSA-110373'
p1217
I2
sS'R-HSA-418890'
p1218
I10
sS'R-HSA-8934903'
p1219
I11
sS'R-HSA-8849468'
p1220
I5
sS'R-HSA-349425'
p1221
I52
sS'R-HSA-3560801'
p1222
I19
sS'R-HSA-5358747'
p1223
I15
sS'R-HSA-5358749'
p1224
I15
sS'R-HSA-877312'
p1225
I19
sS'R-HSA-198203'
p1226
I13
sS'R-HSA-198753'
p1227
I20
sS'R-HSA-5362768'
p1228
I56
sS'R-HSA-1362300'
p1229
I16
sS'R-HSA-77042'
p1230
I2
sS'R-HSA-187577'
p1231
I60
sS'R-HSA-77289'
p1232
I20
sS'R-HSA-77288'
p1233
I6
sS'R-HSA-6802946'
p1234
I40
sS'R-HSA-204005'
p1235
I68
sS'R-HSA-6802948'
p1236
I36
sS'R-HSA-6802949'
p1237
I50
sS'R-HSA-77285'
p1238
I3
sS'R-HSA-379401'
p1239
I1
sS'R-HSA-6811440'
p1240
I50
sS'R-HSA-166166'
p1241
I7
sS'R-HSA-3772470'
p1242
I15
sS'R-HSA-110331'
p1243
I3
sS'R-HSA-390918'
p1244
I5
sS'R-HSA-416993'
p1245
I17
sS'R-HSA-193670'
p1246
I6
sS'R-HSA-427589'
p1247
I3
sS'R-HSA-1362277'
p1248
I31
sS'R-HSA-1358803'
p1249
I14
sS'R-HSA-8865999'
p1250
I5
sS'R-HSA-1369062'
p1251
I18
sS'R-HSA-168138'
p1252
I5
sS'R-HSA-1462054'
p1253
I10
sS'R-HSA-2559585'
p1254
I37
sS'R-HSA-2559584'
p1255
I16
sS'R-HSA-2559586'
p1256
I47
sS'R-HSA-2559580'
p1257
I96
sS'R-HSA-2559582'
p1258
I83
sS'R-HSA-2219530'
p1259
I74
sS'R-HSA-5626978'
p1260
I6
sS'R-HSA-73614'
p1261
I11
sS'R-HSA-8931987'
p1262
I6
sS'R-HSA-69541'
p1263
I11
sS'R-HSA-977225'
p1264
I71
sS'R-HSA-2173791'
p1265
I26
sS'R-HSA-2173795'
p1266
I35
sS'R-HSA-2173796'
p1267
I38
sS'R-HSA-8983432'
p1268
I6
sS'R-HSA-380108'
p1269
I48
sS'R-HSA-5669034'
p1270
I30
sS'R-HSA-499943'
p1271
I32
sS'R-HSA-174495'
p1272
I1
sS'R-HSA-174490'
p1273
I15
sS'R-HSA-69895'
p1274
I4
sS'R-HSA-212676'
p1275
I23
sS'R-HSA-171306'
p1276
I33
sS'R-HSA-8854521'
p1277
I2
sS'R-HSA-381676'
p1278
I67
sS'R-HSA-1855204'
p1279
I26
sS'R-HSA-163841'
p1280
I3
sS'R-HSA-5674499'
p1281
I6
sS'R-HSA-381183'
p1282
I10
sS'R-HSA-5603041'
p1283
I12
sS'R-HSA-1855191'
p1284
I4
sS'R-HSA-1222449'
p1285
I9
sS'R-HSA-8875656'
p1286
I10
sS'R-HSA-68949'
p1287
I71
sS'R-HSA-163282'
p1288
I3
sS'R-HSA-5368598'
p1289
I5
sS'R-HSA-983712'
p1290
I24
sS'R-HSA-5610780'
p1291
I62
sS'R-HSA-381070'
p1292
I4
sS'R-HSA-2022090'
p1293
I51
sS'R-HSA-445989'
p1294
I34
sS'R-HSA-8877330'
p1295
I10
sS'R-HSA-912446'
p1296
I57
sS'R-HSA-1482798'
p1297
I6
sS'R-HSA-2980767'
p1298
I7
sS'R-HSA-2129379'
p1299
I52
sS'R-HSA-425986'
p1300
I9
sS'R-HSA-159230'
p1301
I38
sS'R-HSA-159231'
p1302
I44
sS'R-HSA-159236'
p1303
I76
sS'R-HSA-8949664'
p1304
I16
sS'R-HSA-1299361'
p1305
I2
sS'R-HSA-3858516'
p1306
I2
sS'R-HSA-5602410'
p1307
I1
sS'R-HSA-8934593'
p1308
I17
sS'R-HSA-5602415'
p1309
I1
sS'R-HSA-1445148'
p1310
I84
sS'R-HSA-196741'
p1311
I21
sS'R-HSA-1483196'
p1312
I1
sS'R-HSA-1483191'
p1313
I29
sS'R-HSA-180689'
p1314
I12
sS'R-HSA-1912399'
p1315
I6
sS'R-HSA-1483206'
p1316
I5
sS'R-HSA-5205685'
p1317
I22
sS'R-HSA-110362'
p1318
I8
sS'R-HSA-418886'
p1319
I10
sS'R-HSA-418885'
p1320
I23
sS'R-HSA-2151209'
p1321
I10
sS'R-HSA-203615'
p1322
I10
sS'R-HSA-418889'
p1323
I11
sS'R-HSA-2151201'
p1324
I62
sS'R-HSA-390450'
p1325
I10
sS'R-HSA-186763'
p1326
I30
sS'R-HSA-180534'
p1327
I53
sS'R-HSA-5358752'
p1328
I15
sS'R-HSA-5358751'
p1329
I15
sS'R-HSA-3311021'
p1330
I3
sS'R-HSA-500753'
p1331
I3
sS'R-HSA-877300'
p1332
I167
sS'R-HSA-427359'
p1333
I38
sS'R-HSA-198745'
p1334
I3
sS'R-HSA-8952158'
p1335
I5
sS'R-HSA-450341'
p1336
I10
sS'R-HSA-74749'
p1337
I10
sS'R-HSA-3322077'
p1338
I16
sS'R-HSA-8963678'
p1339
I2
sS'R-HSA-5687868'
p1340
I2
sS'R-HSA-5334118'
p1341
I34
sS'R-HSA-5602636'
p1342
I2
sS'R-HSA-1442490'
p1343
I89
sS'R-HSA-5467333'
p1344
I1
sS'R-HSA-5467337'
p1345
I14
sS'R-HSA-159763'
p1346
I9
sS'R-HSA-111463'
p1347
I7
sS'R-HSA-351143'
p1348
I2
sS'R-HSA-432040'
p1349
I44
sS'R-HSA-432047'
p1350
I14
sS'R-HSA-901032'
p1351
I21
sS'R-HSA-167172'
p1352
I46
sS'R-HSA-190377'
p1353
I11
sS'R-HSA-190374'
p1354
I4
sS'R-HSA-190375'
p1355
I14
sS'R-HSA-190372'
p1356
I13
sS'R-HSA-190373'
p1357
I12
sS'R-HSA-190370'
p1358
I6
sS'R-HSA-190371'
p1359
I7
sS'R-HSA-2122947'
p1360
I59
sS'R-HSA-2122948'
p1361
I40
sS'R-HSA-167287'
p1362
I36
sS'R-HSA-449836'
p1363
I38
sS'R-HSA-8943724'
p1364
I60
sS'R-HSA-198933'
p1365
I297
sS'R-HSA-8935690'
p1366
I5
sS'R-HSA-1237044'
p1367
I12
sS'R-HSA-171007'
p1368
I19
sS'R-HSA-75158'
p1369
I7
sS'R-HSA-167590'
p1370
I10
sS'R-HSA-5656121'
p1371
I17
sS'R-HSA-171319'
p1372
I6
sS'R-HSA-389977'
p1373
I22
sS'R-HSA-6783589'
p1374
I19
sS'R-HSA-611105'
p1375
I89
sS'R-HSA-3000157'
p1376
I55
sS'R-HSA-167826'
p1377
I5
sS'R-HSA-167827'
p1378
I5
sS'R-HSA-174178'
p1379
I72
sS'R-HSA-1368108'
p1380
I49
sS'R-HSA-189483'
p1381
I6
sS'R-HSA-5660489'
p1382
I4
sS'R-HSA-68689'
p1383
I11
sS'R-HSA-1660499'
p1384
I53
sS'R-HSA-2022377'
p1385
I18
sS'R-HSA-111997'
p1386
I1
sS'R-HSA-399956'
p1387
I25
sS'R-HSA-399955'
p1388
I22
sS'R-HSA-399954'
p1389
I17
sS'R-HSA-1222387'
p1390
I11
sS'R-HSA-912694'
p1391
I44
sS'R-HSA-2142753'
p1392
I4
sS'R-HSA-164939'
p1393
I3
sS'R-HSA-1222541'
p1394
I9
sS'R-HSA-1299287'
p1395
I1
sS'R-HSA-5250924'
p1396
I60
sS'R-HSA-418346'
p1397
I8
sS'R-HSA-442720'
p1398
I7
sS'R-HSA-433137'
p1399
I5
sS'R-HSA-1855231'
p1400
I1
sS'R-HSA-6804759'
p1401
I14
sS'R-HSA-6804758'
p1402
I23
sS'R-HSA-6804754'
p1403
I2
sS'R-HSA-6804757'
p1404
I36
sS'R-HSA-6804756'
p1405
I91
sS'R-HSA-5655302'
p1406
I35
sS'R-HSA-5358346'
p1407
I60
sS'R-HSA-205043'
p1408
I19
sS'R-HSA-444209'
p1409
I5
sS'R-HSA-176034'
p1410
I3
sS'R-HSA-170660'
p1411
I10
sS'R-HSA-159227'
p1412
I37
sS'R-HSA-5632987'
p1413
I2
sS'R-HSA-5676934'
p1414
I6
sS'R-HSA-3295583'
p1415
I28
sS'R-HSA-5357905'
p1416
I37
sS'R-HSA-5632968'
p1417
I1
sS'R-HSA-442745'
p1418
I4
sS'R-HSA-6804116'
p1419
I14
sS'R-HSA-6804115'
p1420
I21
sS'R-HSA-6804114'
p1421
I18
sS'R-HSA-389513'
p1422
I22
sS'R-HSA-3134973'
p1423
I5
sS'R-HSA-1483213'
p1424
I13
sS'R-HSA-209560'
p1425
I13
sS'R-HSA-209563'
p1426
I4
sS'R-HSA-2197563'
p1427
I18
sS'R-HSA-5358565'
p1428
I14
sS'R-HSA-5662702'
p1429
I5
sS'R-HSA-3270619'
p1430
I13
sS'R-HSA-1268020'
p1431
I73
sS'R-HSA-162710'
p1432
I18
sS'R-HSA-74752'
p1433
I2
sS'R-HSA-74751'
p1434
I12
sS'R-HSA-1234162'
p1435
I3
sS'R-HSA-163615'
p1436
I17
sS'R-HSA-4615885'
p1437
I83
sS'R-HSA-446203'
p1438
I11
sS'R-HSA-420029'
p1439
I30
sS'R-HSA-446205'
p1440
I5
sS'R-HSA-8849932'
p1441
I21
sS'R-HSA-2871809'
p1442
I224
sS'R-HSA-422085'
p1443
I20
sS'R-HSA-879518'
p1444
I12
sS'R-HSA-180336'
p1445
I8
sS'R-HSA-167162'
p1446
I46
sS'R-HSA-72695'
p1447
I52
sS'R-HSA-8869496'
p1448
I5
sS'R-HSA-109688'
p1449
I66
sS'R-HSA-72689'
p1450
I102
sS'R-HSA-1971475'
p1451
I26
sS'R-HSA-500657'
p1452
I21
sS'R-HSA-186797'
p1453
I34
sS'R-HSA-445144'
p1454
I21
sS'R-HSA-5423646'
p1455
I20
sS'R-HSA-167290'
p1456
I36
sS'R-HSA-1989781'
p1457
I135
sS'R-HSA-180024'
p1458
I25
sS'R-HSA-72764'
p1459
I97
sS'R-HSA-6803157'
p1460
I39
sS'R-HSA-190704'
p1461
I4
sS'R-HSA-392170'
p1462
I22
sS'R-HSA-909733'
p1463
I135
sS'R-HSA-6807878'
p1464
I101
sS'R-HSA-2892245'
p1465
I3
sS'R-HSA-8964058'
p1466
I11
sS'R-HSA-74217'
p1467
I13
sS'R-HSA-5223345'
p1468
I26
sS'R-HSA-8875513'
p1469
I5
sS'R-HSA-964975'
p1470
I3
sS'R-HSA-69183'
p1471
I10
sS'R-HSA-417957'
p1472
I12
sS'R-HSA-5619107'
p1473
I2
sS'R-HSA-430039'
p1474
I23
sS'R-HSA-380270'
p1475
I80
sS'R-HSA-400042'
p1476
I47
sS'R-HSA-3248023'
p1477
I1
sS'R-HSA-2161517'
p1478
I5
sS'R-HSA-209952'
p1479
I2
sS'R-HSA-373760'
p1480
I14
sS'R-HSA-5638303'
p1481
I2
sS'R-HSA-5627117'
p1482
I23
sS'R-HSA-1810476'
p1483
I23
sS'R-HSA-193048'
p1484
I11
sS'R-HSA-1222556'
p1485
I32
sS'R-HSA-5339717'
p1486
I6
sS'R-HSA-5339716'
p1487
I15
sS'R-HSA-3595174'
p1488
I7
sS'R-HSA-3595177'
p1489
I7
sS'R-HSA-3595172'
p1490
I7
sS'R-HSA-1482801'
p1491
I22
sS'R-HSA-418359'
p1492
I12
sS'R-HSA-5654221'
p1493
I21
sS'R-HSA-5654227'
p1494
I14
sS'R-HSA-5654228'
p1495
I15
sS'R-HSA-6791226'
p1496
I183
sS'R-HSA-434316'
p1497
I15
sS'R-HSA-8949275'
p1498
I8
sS'R-HSA-76042'
p1499
I46
sS'R-HSA-8866376'
p1500
I7
sS'R-HSA-8851680'
p1501
I12
sS'R-HSA-73980'
p1502
I23
sS'R-HSA-428559'
p1503
I2
sS'R-HSA-5666185'
p1504
I13
sS'R-HSA-72165'
p1505
I52
sS'R-HSA-72163'
p1506
I180
sS'R-HSA-1483226'
p1507
I5
sS'R-HSA-110381'
p1508
I3
sS'R-HSA-420499'
p1509
I40
sS'R-HSA-936964'
p1510
I18
sS'R-HSA-165160'
p1511
I3
sS'R-HSA-1474244'
p1512
I15
sS'R-HSA-1221632'
p1513
I60
sS'R-HSA-674695'
p1514
I83
sS'R-HSA-77310'
p1515
I5
sS'R-HSA-187042'
p1516
I5
sS'R-HSA-141444'
p1517
I94
sS'R-HSA-4641258'
p1518
I57
sS'R-HSA-5362517'
p1519
I21
sS'R-HSA-5621480'
p1520
I66
sS'R-HSA-177539'
p1521
I9
sS'R-HSA-77075'
p1522
I27
sS'R-HSA-6794361'
p1523
I87
sS'R-HSA-427601'
p1524
I9
sS'R-HSA-446210'
p1525
I8
sS'R-HSA-1566977'
p1526
I6
sS'R-HSA-5621575'
p1527
I21
sS'R-HSA-159782'
p1528
I10
sS'R-HSA-5649702'
p1529
I7
sS'R-HSA-73772'
p1530
I30
sS'R-HSA-73777'
p1531
I59
sS'R-HSA-73776'
p1532
I46
sS'R-HSA-73779'
p1533
I46
sS'R-HSA-5655862'
p1534
I17
sS'R-HSA-1266695'
p1535
I41
sS'R-HSA-190827'
p1536
I3
sS'R-HSA-6807004'
p1537
I21
sS'R-HSA-6809371'
p1538
I131
sS'R-HSA-844615'
p1539
I4
sS'R-HSA-198765'
p1540
I3
sS'R-HSA-948021'
p1541
I2
sS'R-HSA-446107'
p1542
I11
sS'R-HSA-75108'
p1543
I4
sS'R-HSA-75109'
p1544
I14
sS'R-HSA-75105'
p1545
I14
sS'R-HSA-75102'
p1546
I2
sS'R-HSA-174577'
p1547
I7
sS'R-HSA-204626'
p1548
I4
sS'R-HSA-5675221'
p1549
I38
sS'R-HSA-167021'
p1550
I3
sS'R-HSA-419771'
p1551
I9
sS'R-HSA-70268'
p1552
I19
sS'R-HSA-70263'
p1553
I34
sS'R-HSA-983189'
p1554
I71
s.